

Microchip MPLAB XC8 Assembler V2.46 build 20240104201356 
                                                                                               Sun Dec 22 09:08:32 2024

Microchip MPLAB XC8 C Compiler v2.46 (Free license) build 20240104201356 Og1 
     1                           	processor	16F18344
     2                           	pagewidth 120
     3                           	opt	flic
     4                           	psect	idataBANK1,global,class=CODE,delta=2,noexec
     5                           	psect	cinit,global,class=CODE,merge=1,delta=2
     6                           	psect	bssCOMMON,global,class=COMMON,space=1,delta=1,noexec
     7                           	psect	bssBANK1,global,class=BANK1,space=1,delta=1,noexec
     8                           	psect	dataBANK1,global,class=BANK1,space=1,delta=1,noexec
     9                           	psect	bssBANK2,global,class=BANK2,space=1,delta=1,noexec
    10                           	psect	clrtext,global,class=CODE,delta=2
    11                           	psect	cstackBANK1,global,class=BANK1,space=1,delta=1,noexec
    12                           	psect	cstackCOMMON,global,class=COMMON,space=1,delta=1,noexec
    13                           	psect	cstackBANK0,global,class=BANK0,space=1,delta=1,noexec
    14                           	psect	maintext,global,class=CODE,merge=1,split=1,delta=2
    15                           	psect	text1,local,class=CODE,merge=1,delta=2
    16                           	psect	text2,local,class=CODE,merge=1,delta=2,group=1
    17                           	psect	text3,local,class=CODE,merge=1,delta=2,group=1
    18                           	psect	text4,local,class=CODE,merge=1,delta=2
    19                           	psect	text5,local,class=CODE,merge=1,delta=2,group=1
    20                           	psect	text6,local,class=CODE,merge=1,delta=2,group=1
    21                           	psect	text7,local,class=CODE,merge=1,delta=2,group=1
    22                           	psect	text8,local,class=CODE,merge=1,delta=2,group=1
    23                           	psect	text9,local,class=CODE,merge=1,delta=2,group=1
    24                           	psect	text10,local,class=CODE,merge=1,delta=2,group=1
    25                           	psect	text11,local,class=CODE,merge=1,delta=2
    26                           	psect	text12,local,class=CODE,merge=1,delta=2
    27                           	psect	text13,local,class=CODE,merge=1,delta=2
    28                           	psect	text14,local,class=CODE,merge=1,delta=2
    29                           	psect	text15,local,class=CODE,merge=1,delta=2
    30                           	psect	text16,local,class=CODE,merge=1,delta=2,group=1
    31                           	psect	text17,local,class=CODE,merge=1,delta=2,group=1
    32                           	psect	text18,local,class=CODE,merge=1,delta=2,group=1
    33                           	psect	text19,local,class=CODE,merge=1,delta=2
    34                           	psect	intentry,global,class=CODE,delta=2
    35                           	psect	text21,local,class=CODE,merge=1,delta=2
    36                           	psect	text22,local,class=CODE,merge=1,delta=2
    37                           	psect	config,global,abs,ovrld,class=CONFIG,space=4,delta=2,noexec
    38                           	dabs	1,0x7E,2
    39     0000                     
    40                           ; Generated 11/01/2024 GMT
    41                           ; 
    42                           ; Copyright © 2024, Microchip Technology Inc. and its subsidiaries ("Microchip")
    43                           ; All rights reserved.
    44                           ; 
    45                           ; This software is developed by Microchip Technology Inc. and its subsidiaries ("Microch
      +                          ip").
    46                           ; 
    47                           ; Redistribution and use in source and binary forms, with or without modification, are
    48                           ; permitted provided that the following conditions are met:
    49                           ; 
    50                           ;     1. Redistributions of source code must retain the above copyright notice, this lis
      +                          t of
    51                           ;        conditions and the following disclaimer.
    52                           ; 
    53                           ;     2. Redistributions in binary form must reproduce the above copyright notice, this 
      +                          list
    54                           ;        of conditions and the following disclaimer in the documentation and/or other
    55                           ;        materials provided with the distribution. Publication is not required when
    56                           ;        this file is used in an embedded application.
    57                           ; 
    58                           ;     3. Microchip's name may not be used to endorse or promote products derived from th
      +                          is
    59                           ;        software without specific prior written permission.
    60                           ; 
    61                           ; THIS SOFTWARE IS PROVIDED BY MICROCHIP "AS IS" AND ANY EXPRESS OR IMPLIED WARRANTIES,
    62                           ; INCLUDING, BUT NOT LIMITED TO, THE IMPLIED WARRANTIES OF MERCHANTABILITY AND FITNESS F
      +                          OR
    63                           ; PURPOSE ARE DISCLAIMED.  IN NO EVENT SHALL MICROCHIP BE LIABLE FOR ANY DIRECT, INDIREC
      +                          T,
    64                           ; INCIDENTAL, SPECIAL, EXEMPLARY, OR CONSEQUENTIAL DAMAGES (INCLUDING BUT NOT LIMITED TO
    65                           ; PROCUREMENT OF SUBSTITUTE GOODS OR SERVICES; LOSS OF USE, DATA OR PROFITS; OR BUSINESS
    66                           ; INTERRUPTION) HOWSOEVER CAUSED AND ON ANY THEORY OF LIABILITY, WHETHER IN CONTRACT, ST
      +                          RICT
    67                           ; LIABILITY, OR TORT (INCLUDING NEGLIGENCE OR OTHERWISE) ARISING IN ANY WAY OUT OF THE U
      +                          SE OF
    68                           ; THIS SOFTWARE, EVEN IF ADVISED OF THE POSSIBILITY OF SUCH DAMAGE.
    69                           ; 
    70                           ; 
    71                           ; Code-generator required, PIC16F18344 Definitions
    72                           ; 
    73                           ; SFR Addresses
    74     0000                     	;# 
    75     0001                     	;# 
    76     0002                     	;# 
    77     0003                     	;# 
    78     0004                     	;# 
    79     0005                     	;# 
    80     0006                     	;# 
    81     0007                     	;# 
    82     0008                     	;# 
    83     0009                     	;# 
    84     000A                     	;# 
    85     000B                     	;# 
    86     000C                     	;# 
    87     000D                     	;# 
    88     000E                     	;# 
    89     0010                     	;# 
    90     0011                     	;# 
    91     0012                     	;# 
    92     0013                     	;# 
    93     0014                     	;# 
    94     0015                     	;# 
    95     0015                     	;# 
    96     0016                     	;# 
    97     0016                     	;# 
    98     0017                     	;# 
    99     0018                     	;# 
   100     0019                     	;# 
   101     0019                     	;# 
   102     001A                     	;# 
   103     001B                     	;# 
   104     001C                     	;# 
   105     001D                     	;# 
   106     001E                     	;# 
   107     001F                     	;# 
   108     008C                     	;# 
   109     008D                     	;# 
   110     008E                     	;# 
   111     0090                     	;# 
   112     0091                     	;# 
   113     0092                     	;# 
   114     0093                     	;# 
   115     0094                     	;# 
   116     0097                     	;# 
   117     009B                     	;# 
   118     009B                     	;# 
   119     009C                     	;# 
   120     009D                     	;# 
   121     009E                     	;# 
   122     009F                     	;# 
   123     010C                     	;# 
   124     010D                     	;# 
   125     010E                     	;# 
   126     0111                     	;# 
   127     0112                     	;# 
   128     0113                     	;# 
   129     0114                     	;# 
   130     0115                     	;# 
   131     0116                     	;# 
   132     0117                     	;# 
   133     0118                     	;# 
   134     0119                     	;# 
   135     018C                     	;# 
   136     018D                     	;# 
   137     018E                     	;# 
   138     0197                     	;# 
   139     0199                     	;# 
   140     0199                     	;# 
   141     0199                     	;# 
   142     019A                     	;# 
   143     019A                     	;# 
   144     019A                     	;# 
   145     019B                     	;# 
   146     019B                     	;# 
   147     019B                     	;# 
   148     019B                     	;# 
   149     019B                     	;# 
   150     019C                     	;# 
   151     019C                     	;# 
   152     019C                     	;# 
   153     019D                     	;# 
   154     019D                     	;# 
   155     019D                     	;# 
   156     019E                     	;# 
   157     019E                     	;# 
   158     019E                     	;# 
   159     019F                     	;# 
   160     019F                     	;# 
   161     019F                     	;# 
   162     019F                     	;# 
   163     019F                     	;# 
   164     020C                     	;# 
   165     020D                     	;# 
   166     020E                     	;# 
   167     0211                     	;# 
   168     0211                     	;# 
   169     0212                     	;# 
   170     0212                     	;# 
   171     0213                     	;# 
   172     0213                     	;# 
   173     0214                     	;# 
   174     0214                     	;# 
   175     0215                     	;# 
   176     0215                     	;# 
   177     0215                     	;# 
   178     0215                     	;# 
   179     0216                     	;# 
   180     0216                     	;# 
   181     0217                     	;# 
   182     0217                     	;# 
   183     028C                     	;# 
   184     028D                     	;# 
   185     028E                     	;# 
   186     0291                     	;# 
   187     0291                     	;# 
   188     0292                     	;# 
   189     0293                     	;# 
   190     0294                     	;# 
   191     0295                     	;# 
   192     0295                     	;# 
   193     0296                     	;# 
   194     0297                     	;# 
   195     0298                     	;# 
   196     029F                     	;# 
   197     030C                     	;# 
   198     030D                     	;# 
   199     030E                     	;# 
   200     0311                     	;# 
   201     0311                     	;# 
   202     0312                     	;# 
   203     0313                     	;# 
   204     0314                     	;# 
   205     0315                     	;# 
   206     0315                     	;# 
   207     0316                     	;# 
   208     0317                     	;# 
   209     0318                     	;# 
   210     038C                     	;# 
   211     038D                     	;# 
   212     038E                     	;# 
   213     0391                     	;# 
   214     0392                     	;# 
   215     0393                     	;# 
   216     0394                     	;# 
   217     0395                     	;# 
   218     0396                     	;# 
   219     0397                     	;# 
   220     0398                     	;# 
   221     0399                     	;# 
   222     039A                     	;# 
   223     039C                     	;# 
   224     039D                     	;# 
   225     039E                     	;# 
   226     039F                     	;# 
   227     0411                     	;# 
   228     0411                     	;# 
   229     0412                     	;# 
   230     0413                     	;# 
   231     0414                     	;# 
   232     0415                     	;# 
   233     0416                     	;# 
   234     0417                     	;# 
   235     0418                     	;# 
   236     0418                     	;# 
   237     0419                     	;# 
   238     041A                     	;# 
   239     041B                     	;# 
   240     041C                     	;# 
   241     041D                     	;# 
   242     041E                     	;# 
   243     041F                     	;# 
   244     0498                     	;# 
   245     0498                     	;# 
   246     0499                     	;# 
   247     049A                     	;# 
   248     049B                     	;# 
   249     049B                     	;# 
   250     049C                     	;# 
   251     049D                     	;# 
   252     049E                     	;# 
   253     049F                     	;# 
   254     0617                     	;# 
   255     0618                     	;# 
   256     0619                     	;# 
   257     0619                     	;# 
   258     061A                     	;# 
   259     061B                     	;# 
   260     061C                     	;# 
   261     061C                     	;# 
   262     061F                     	;# 
   263     0691                     	;# 
   264     0692                     	;# 
   265     0693                     	;# 
   266     0694                     	;# 
   267     0695                     	;# 
   268     0696                     	;# 
   269     0697                     	;# 
   270     0698                     	;# 
   271     0699                     	;# 
   272     0711                     	;# 
   273     0712                     	;# 
   274     0713                     	;# 
   275     0714                     	;# 
   276     0715                     	;# 
   277     0716                     	;# 
   278     0717                     	;# 
   279     0718                     	;# 
   280     0719                     	;# 
   281     0891                     	;# 
   282     0891                     	;# 
   283     0891                     	;# 
   284     0891                     	;# 
   285     0891                     	;# 
   286     0891                     	;# 
   287     0892                     	;# 
   288     0892                     	;# 
   289     0892                     	;# 
   290     0893                     	;# 
   291     0893                     	;# 
   292     0893                     	;# 
   293     0893                     	;# 
   294     0893                     	;# 
   295     0893                     	;# 
   296     0894                     	;# 
   297     0894                     	;# 
   298     0894                     	;# 
   299     0895                     	;# 
   300     0895                     	;# 
   301     0895                     	;# 
   302     0896                     	;# 
   303     0896                     	;# 
   304     0896                     	;# 
   305     089B                     	;# 
   306     0911                     	;# 
   307     0912                     	;# 
   308     0913                     	;# 
   309     0914                     	;# 
   310     0915                     	;# 
   311     0916                     	;# 
   312     0918                     	;# 
   313     0919                     	;# 
   314     091A                     	;# 
   315     091B                     	;# 
   316     091C                     	;# 
   317     091D                     	;# 
   318     091E                     	;# 
   319     091F                     	;# 
   320     0E0F                     	;# 
   321     0E10                     	;# 
   322     0E11                     	;# 
   323     0E12                     	;# 
   324     0E13                     	;# 
   325     0E14                     	;# 
   326     0E15                     	;# 
   327     0E16                     	;# 
   328     0E17                     	;# 
   329     0E18                     	;# 
   330     0E19                     	;# 
   331     0E1A                     	;# 
   332     0E1B                     	;# 
   333     0E1C                     	;# 
   334     0E20                     	;# 
   335     0E21                     	;# 
   336     0E22                     	;# 
   337     0E24                     	;# 
   338     0E25                     	;# 
   339     0E28                     	;# 
   340     0E29                     	;# 
   341     0E2A                     	;# 
   342     0E2B                     	;# 
   343     0E2C                     	;# 
   344     0E2D                     	;# 
   345     0E2E                     	;# 
   346     0E2F                     	;# 
   347     0E90                     	;# 
   348     0E91                     	;# 
   349     0E92                     	;# 
   350     0E94                     	;# 
   351     0E95                     	;# 
   352     0E9C                     	;# 
   353     0E9D                     	;# 
   354     0E9E                     	;# 
   355     0E9F                     	;# 
   356     0EA0                     	;# 
   357     0EA1                     	;# 
   358     0EA2                     	;# 
   359     0EA3                     	;# 
   360     0EA4                     	;# 
   361     0EA5                     	;# 
   362     0EA6                     	;# 
   363     0EA7                     	;# 
   364     0F0F                     	;# 
   365     0F10                     	;# 
   366     0F11                     	;# 
   367     0F12                     	;# 
   368     0F13                     	;# 
   369     0F14                     	;# 
   370     0F15                     	;# 
   371     0F16                     	;# 
   372     0F17                     	;# 
   373     0F18                     	;# 
   374     0F19                     	;# 
   375     0F1A                     	;# 
   376     0F1B                     	;# 
   377     0F1C                     	;# 
   378     0F1D                     	;# 
   379     0F1E                     	;# 
   380     0F1F                     	;# 
   381     0F20                     	;# 
   382     0F21                     	;# 
   383     0F22                     	;# 
   384     0F23                     	;# 
   385     0F24                     	;# 
   386     0F25                     	;# 
   387     0F26                     	;# 
   388     0F27                     	;# 
   389     0F28                     	;# 
   390     0F29                     	;# 
   391     0F2A                     	;# 
   392     0F2B                     	;# 
   393     0F2C                     	;# 
   394     0F2D                     	;# 
   395     0F2E                     	;# 
   396     0F2F                     	;# 
   397     0F30                     	;# 
   398     0F31                     	;# 
   399     0F32                     	;# 
   400     0F33                     	;# 
   401     0F34                     	;# 
   402     0F35                     	;# 
   403     0F36                     	;# 
   404     0F37                     	;# 
   405     0FE4                     	;# 
   406     0FE5                     	;# 
   407     0FE6                     	;# 
   408     0FE7                     	;# 
   409     0FE8                     	;# 
   410     0FE9                     	;# 
   411     0FEA                     	;# 
   412     0FEB                     	;# 
   413     0FED                     	;# 
   414     0FEE                     	;# 
   415     0FEF                     	;# 
   416     0000                     	;# 
   417     0001                     	;# 
   418     0002                     	;# 
   419     0003                     	;# 
   420     0004                     	;# 
   421     0005                     	;# 
   422     0006                     	;# 
   423     0007                     	;# 
   424     0008                     	;# 
   425     0009                     	;# 
   426     000A                     	;# 
   427     000B                     	;# 
   428     000C                     	;# 
   429     000D                     	;# 
   430     000E                     	;# 
   431     0010                     	;# 
   432     0011                     	;# 
   433     0012                     	;# 
   434     0013                     	;# 
   435     0014                     	;# 
   436     0015                     	;# 
   437     0015                     	;# 
   438     0016                     	;# 
   439     0016                     	;# 
   440     0017                     	;# 
   441     0018                     	;# 
   442     0019                     	;# 
   443     0019                     	;# 
   444     001A                     	;# 
   445     001B                     	;# 
   446     001C                     	;# 
   447     001D                     	;# 
   448     001E                     	;# 
   449     001F                     	;# 
   450     008C                     	;# 
   451     008D                     	;# 
   452     008E                     	;# 
   453     0090                     	;# 
   454     0091                     	;# 
   455     0092                     	;# 
   456     0093                     	;# 
   457     0094                     	;# 
   458     0097                     	;# 
   459     009B                     	;# 
   460     009B                     	;# 
   461     009C                     	;# 
   462     009D                     	;# 
   463     009E                     	;# 
   464     009F                     	;# 
   465     010C                     	;# 
   466     010D                     	;# 
   467     010E                     	;# 
   468     0111                     	;# 
   469     0112                     	;# 
   470     0113                     	;# 
   471     0114                     	;# 
   472     0115                     	;# 
   473     0116                     	;# 
   474     0117                     	;# 
   475     0118                     	;# 
   476     0119                     	;# 
   477     018C                     	;# 
   478     018D                     	;# 
   479     018E                     	;# 
   480     0197                     	;# 
   481     0199                     	;# 
   482     0199                     	;# 
   483     0199                     	;# 
   484     019A                     	;# 
   485     019A                     	;# 
   486     019A                     	;# 
   487     019B                     	;# 
   488     019B                     	;# 
   489     019B                     	;# 
   490     019B                     	;# 
   491     019B                     	;# 
   492     019C                     	;# 
   493     019C                     	;# 
   494     019C                     	;# 
   495     019D                     	;# 
   496     019D                     	;# 
   497     019D                     	;# 
   498     019E                     	;# 
   499     019E                     	;# 
   500     019E                     	;# 
   501     019F                     	;# 
   502     019F                     	;# 
   503     019F                     	;# 
   504     019F                     	;# 
   505     019F                     	;# 
   506     020C                     	;# 
   507     020D                     	;# 
   508     020E                     	;# 
   509     0211                     	;# 
   510     0211                     	;# 
   511     0212                     	;# 
   512     0212                     	;# 
   513     0213                     	;# 
   514     0213                     	;# 
   515     0214                     	;# 
   516     0214                     	;# 
   517     0215                     	;# 
   518     0215                     	;# 
   519     0215                     	;# 
   520     0215                     	;# 
   521     0216                     	;# 
   522     0216                     	;# 
   523     0217                     	;# 
   524     0217                     	;# 
   525     028C                     	;# 
   526     028D                     	;# 
   527     028E                     	;# 
   528     0291                     	;# 
   529     0291                     	;# 
   530     0292                     	;# 
   531     0293                     	;# 
   532     0294                     	;# 
   533     0295                     	;# 
   534     0295                     	;# 
   535     0296                     	;# 
   536     0297                     	;# 
   537     0298                     	;# 
   538     029F                     	;# 
   539     030C                     	;# 
   540     030D                     	;# 
   541     030E                     	;# 
   542     0311                     	;# 
   543     0311                     	;# 
   544     0312                     	;# 
   545     0313                     	;# 
   546     0314                     	;# 
   547     0315                     	;# 
   548     0315                     	;# 
   549     0316                     	;# 
   550     0317                     	;# 
   551     0318                     	;# 
   552     038C                     	;# 
   553     038D                     	;# 
   554     038E                     	;# 
   555     0391                     	;# 
   556     0392                     	;# 
   557     0393                     	;# 
   558     0394                     	;# 
   559     0395                     	;# 
   560     0396                     	;# 
   561     0397                     	;# 
   562     0398                     	;# 
   563     0399                     	;# 
   564     039A                     	;# 
   565     039C                     	;# 
   566     039D                     	;# 
   567     039E                     	;# 
   568     039F                     	;# 
   569     0411                     	;# 
   570     0411                     	;# 
   571     0412                     	;# 
   572     0413                     	;# 
   573     0414                     	;# 
   574     0415                     	;# 
   575     0416                     	;# 
   576     0417                     	;# 
   577     0418                     	;# 
   578     0418                     	;# 
   579     0419                     	;# 
   580     041A                     	;# 
   581     041B                     	;# 
   582     041C                     	;# 
   583     041D                     	;# 
   584     041E                     	;# 
   585     041F                     	;# 
   586     0498                     	;# 
   587     0498                     	;# 
   588     0499                     	;# 
   589     049A                     	;# 
   590     049B                     	;# 
   591     049B                     	;# 
   592     049C                     	;# 
   593     049D                     	;# 
   594     049E                     	;# 
   595     049F                     	;# 
   596     0617                     	;# 
   597     0618                     	;# 
   598     0619                     	;# 
   599     0619                     	;# 
   600     061A                     	;# 
   601     061B                     	;# 
   602     061C                     	;# 
   603     061C                     	;# 
   604     061F                     	;# 
   605     0691                     	;# 
   606     0692                     	;# 
   607     0693                     	;# 
   608     0694                     	;# 
   609     0695                     	;# 
   610     0696                     	;# 
   611     0697                     	;# 
   612     0698                     	;# 
   613     0699                     	;# 
   614     0711                     	;# 
   615     0712                     	;# 
   616     0713                     	;# 
   617     0714                     	;# 
   618     0715                     	;# 
   619     0716                     	;# 
   620     0717                     	;# 
   621     0718                     	;# 
   622     0719                     	;# 
   623     0891                     	;# 
   624     0891                     	;# 
   625     0891                     	;# 
   626     0891                     	;# 
   627     0891                     	;# 
   628     0891                     	;# 
   629     0892                     	;# 
   630     0892                     	;# 
   631     0892                     	;# 
   632     0893                     	;# 
   633     0893                     	;# 
   634     0893                     	;# 
   635     0893                     	;# 
   636     0893                     	;# 
   637     0893                     	;# 
   638     0894                     	;# 
   639     0894                     	;# 
   640     0894                     	;# 
   641     0895                     	;# 
   642     0895                     	;# 
   643     0895                     	;# 
   644     0896                     	;# 
   645     0896                     	;# 
   646     0896                     	;# 
   647     089B                     	;# 
   648     0911                     	;# 
   649     0912                     	;# 
   650     0913                     	;# 
   651     0914                     	;# 
   652     0915                     	;# 
   653     0916                     	;# 
   654     0918                     	;# 
   655     0919                     	;# 
   656     091A                     	;# 
   657     091B                     	;# 
   658     091C                     	;# 
   659     091D                     	;# 
   660     091E                     	;# 
   661     091F                     	;# 
   662     0E0F                     	;# 
   663     0E10                     	;# 
   664     0E11                     	;# 
   665     0E12                     	;# 
   666     0E13                     	;# 
   667     0E14                     	;# 
   668     0E15                     	;# 
   669     0E16                     	;# 
   670     0E17                     	;# 
   671     0E18                     	;# 
   672     0E19                     	;# 
   673     0E1A                     	;# 
   674     0E1B                     	;# 
   675     0E1C                     	;# 
   676     0E20                     	;# 
   677     0E21                     	;# 
   678     0E22                     	;# 
   679     0E24                     	;# 
   680     0E25                     	;# 
   681     0E28                     	;# 
   682     0E29                     	;# 
   683     0E2A                     	;# 
   684     0E2B                     	;# 
   685     0E2C                     	;# 
   686     0E2D                     	;# 
   687     0E2E                     	;# 
   688     0E2F                     	;# 
   689     0E90                     	;# 
   690     0E91                     	;# 
   691     0E92                     	;# 
   692     0E94                     	;# 
   693     0E95                     	;# 
   694     0E9C                     	;# 
   695     0E9D                     	;# 
   696     0E9E                     	;# 
   697     0E9F                     	;# 
   698     0EA0                     	;# 
   699     0EA1                     	;# 
   700     0EA2                     	;# 
   701     0EA3                     	;# 
   702     0EA4                     	;# 
   703     0EA5                     	;# 
   704     0EA6                     	;# 
   705     0EA7                     	;# 
   706     0F0F                     	;# 
   707     0F10                     	;# 
   708     0F11                     	;# 
   709     0F12                     	;# 
   710     0F13                     	;# 
   711     0F14                     	;# 
   712     0F15                     	;# 
   713     0F16                     	;# 
   714     0F17                     	;# 
   715     0F18                     	;# 
   716     0F19                     	;# 
   717     0F1A                     	;# 
   718     0F1B                     	;# 
   719     0F1C                     	;# 
   720     0F1D                     	;# 
   721     0F1E                     	;# 
   722     0F1F                     	;# 
   723     0F20                     	;# 
   724     0F21                     	;# 
   725     0F22                     	;# 
   726     0F23                     	;# 
   727     0F24                     	;# 
   728     0F25                     	;# 
   729     0F26                     	;# 
   730     0F27                     	;# 
   731     0F28                     	;# 
   732     0F29                     	;# 
   733     0F2A                     	;# 
   734     0F2B                     	;# 
   735     0F2C                     	;# 
   736     0F2D                     	;# 
   737     0F2E                     	;# 
   738     0F2F                     	;# 
   739     0F30                     	;# 
   740     0F31                     	;# 
   741     0F32                     	;# 
   742     0F33                     	;# 
   743     0F34                     	;# 
   744     0F35                     	;# 
   745     0F36                     	;# 
   746     0F37                     	;# 
   747     0FE4                     	;# 
   748     0FE5                     	;# 
   749     0FE6                     	;# 
   750     0FE7                     	;# 
   751     0FE8                     	;# 
   752     0FE9                     	;# 
   753     0FEA                     	;# 
   754     0FEB                     	;# 
   755     0FED                     	;# 
   756     0FEE                     	;# 
   757     0FEF                     	;# 
   758                           
   759                           	psect	idataBANK1
   760     0964                     __pidataBANK1:
   761                           
   762                           ;initializer for _cum_err_max
   763     0964  3400               	retlw	0
   764     0965  3400               	retlw	0
   765     0966  34A0               	retlw	160
   766     0967  3440               	retlw	64
   767                           
   768                           ;initializer for _TEMPF_tens
   769     0968  3410               	retlw	16
   770                           
   771                           ;initializer for _TEMPF_ones
   772     0969  3420               	retlw	32
   773     000B                     _INTCONbits	set	11
   774     001F                     _T2CONbits	set	31
   775     001E                     _PR2	set	30
   776     0018                     _T0CON1bits	set	24
   777     0017                     _T0CON0bits	set	23
   778     0012                     _PIR2bits	set	18
   779     0010                     _PIR0bits	set	16
   780     0011                     _PIR1bits	set	17
   781     008C                     _TRISAbits	set	140
   782     008E                     _TRISCbits	set	142
   783     008D                     _TRISBbits	set	141
   784     008E                     _TRISC	set	142
   785     008D                     _TRISB	set	141
   786     008C                     _TRISA	set	140
   787     0092                     _PIE2bits	set	146
   788     0090                     _PIE0bits	set	144
   789     010E                     _LATC	set	270
   790     010D                     _LATB	set	269
   791     010C                     _LATA	set	268
   792     010D                     _LATBbits	set	269
   793     010E                     _LATCbits	set	270
   794     019B                     _SP1BRGL	set	411
   795     019F                     _BAUD1CONbits	set	415
   796     019D                     _RC1STAbits	set	413
   797     019E                     _TX1STAbits	set	414
   798     018E                     _ANSELC	set	398
   799     018D                     _ANSELB	set	397
   800     018C                     _ANSELA	set	396
   801     019A                     _TX1REG	set	410
   802     0215                     _SSP1CON1bits	set	533
   803     0214                     _SSP1STATbits	set	532
   804     0211                     _SSP1BUF	set	529
   805     0416                     _PR4	set	1046
   806     0417                     _T4CONbits	set	1047
   807     0619                     _PWM5CONbits	set	1561
   808     0618                     _PWM5DCH	set	1560
   809     0617                     _PWM5DCL	set	1559
   810     091F                     _OSCFRQ	set	2335
   811     0919                     _OSCCON1	set	2329
   812     0E21                     _SSP1DATPPS	set	3617
   813     0EA4                     _RC4PPS	set	3748
   814     0E94                     _RA4PPS	set	3732
   815     0EA0                     _RC0PPS	set	3744
   816     0EA7                     _RC7PPS	set	3751
   817                           
   818                           	psect	cinit
   819     0027                     start_initialization:	
   820                           ; #config settings
   821                           
   822     0027                     __initialization:
   823                           
   824                           ; Initialize objects allocated to BANK1
   825     0027  3064               	movlw	low __pidataBANK1
   826     0028  0084               	movwf	4
   827     0029  3089               	movlw	(high __pidataBANK1)| (0+128)
   828     002A  0085               	movwf	5
   829     002B  0021               	movlb	1	; select bank1
   830     002C  0012               	moviw fsr0++
   831     002D  00D6               	movwf	__pdataBANK1& (0+127)
   832     002E  0012               	moviw fsr0++
   833     002F  00D7               	movwf	(__pdataBANK1+1)& (0+127)
   834     0030  0012               	moviw fsr0++
   835     0031  00D8               	movwf	(__pdataBANK1+2)& (0+127)
   836     0032  0012               	moviw fsr0++
   837     0033  00D9               	movwf	(__pdataBANK1+3)& (0+127)
   838     0034  0012               	moviw fsr0++
   839     0035  00DA               	movwf	(__pdataBANK1+4)& (0+127)
   840     0036  0012               	moviw fsr0++
   841     0037  00DB               	movwf	(__pdataBANK1+5)& (0+127)
   842                           
   843                           ; Clear objects allocated to COMMON
   844     0038  01FA               	clrf	__pbssCOMMON& (0+127)
   845     0039  01FB               	clrf	(__pbssCOMMON+1)& (0+127)
   846                           
   847                           ; Clear objects allocated to BANK1
   848     003A  30C1               	movlw	low __pbssBANK1
   849     003B  0084               	movwf	4
   850     003C  3000               	movlw	high __pbssBANK1
   851     003D  0085               	movwf	5
   852     003E  3015               	movlw	21
   853     003F  3189  215E  3180   	fcall	clear_ram0
   854                           
   855                           ; Clear objects allocated to BANK2
   856     0042  3020               	movlw	low __pbssBANK2
   857     0043  0084               	movwf	4
   858     0044  3001               	movlw	high __pbssBANK2
   859     0045  0085               	movwf	5
   860     0046  3028               	movlw	40
   861     0047  3189  215E  3180   	fcall	clear_ram0
   862     004A                     end_of_initialization:	
   863                           ;End of C runtime variable initialization code
   864                           
   865     004A                     __end_of__initialization:
   866     004A  107E               	bcf	int$flags,0	;clear compiler interrupt flag (level 1)
   867     004B  0020               	movlb	0
   868     004C  318C  2C73         	ljmp	_main	;jump to C main() function
   869                           
   870                           	psect	bssCOMMON
   871     007A                     __pbssCOMMON:
   872     007A                     _temp_val:
   873     007A                     	ds	1
   874     007B                     _buff_index:
   875     007B                     	ds	1
   876                           
   877                           	psect	bssBANK1
   878     00C1                     __pbssBANK1:
   879     00C1                     _prev_err:
   880     00C1                     	ds	4
   881     00C5                     _cum_err:
   882     00C5                     	ds	4
   883     00C9                     _cur_temp:
   884     00C9                     	ds	4
   885     00CD                     _PWM_max:
   886     00CD                     	ds	2
   887     00CF                     _cur_PWM:
   888     00CF                     	ds	2
   889     00D1                     _flags:
   890     00D1                     	ds	1
   891     00D2                     _mode:
   892     00D2                     	ds	1
   893     00D3                     _temp_div:
   894     00D3                     	ds	1
   895     00D4                     _SP_crossed:
   896     00D4                     	ds	1
   897     00D5                     _buff_full:
   898     00D5                     	ds	1
   899                           
   900                           	psect	dataBANK1
   901     00D6                     __pdataBANK1:
   902     00D6                     _cum_err_max:
   903     00D6                     	ds	4
   904     00DA                     _TEMPF_tens:
   905     00DA                     	ds	1
   906     00DB                     _TEMPF_ones:
   907     00DB                     	ds	1
   908                           
   909                           	psect	bssBANK2
   910     0120                     __pbssBANK2:
   911     0120                     _temp_buffer:
   912     0120                     	ds	40
   913                           
   914                           	psect	clrtext
   915     095E                     clear_ram0:	
   916                           ;	Called with FSR0 containing the base address, and
   917                           ;	WREG with the size to clear
   918                           
   919     095E  0064               	clrwdt	;clear the watchdog before getting into this loop
   920     095F                     clrloop0:
   921     095F  0180               	clrf	0	;clear RAM location pointed to by FSR
   922     0960  3101               	addfsr 0,1
   923     0961  0B89               	decfsz	9,f	;Have we reached the end of clearing yet?
   924     0962  295F               	goto	clrloop0	;have we reached the end yet?
   925     0963  3400               	retlw	0	;all done for this memory range, return
   926                           
   927                           	psect	cstackBANK1
   928     00A0                     __pcstackBANK1:
   929     00A0                     ?___flge:
   930     00A0                     ?_get_avg_temp:	
   931                           ; 1 bit 
   932                           
   933     00A0                     ?___fltol:	
   934                           ; 4 bytes @ 0x0
   935                           
   936     00A0                     ?___flsub:	
   937                           ; 4 bytes @ 0x0
   938                           
   939     00A0                     ___flge@ff1:	
   940                           ; 4 bytes @ 0x0
   941                           
   942     00A0                     ___fltol@f1:	
   943                           ; 4 bytes @ 0x0
   944                           
   945     00A0                     ___flsub@a:	
   946                           ; 4 bytes @ 0x0
   947                           
   948                           
   949                           ; 4 bytes @ 0x0
   950     00A0                     	ds	4
   951     00A4                     ??___fltol:
   952     00A4                     ___flge@ff2:	
   953                           ; 1 bytes @ 0x4
   954                           
   955     00A4                     ___flsub@b:	
   956                           ; 4 bytes @ 0x4
   957                           
   958     00A4                     _get_avg_temp$1279:	
   959                           ; 4 bytes @ 0x4
   960                           
   961                           
   962                           ; 4 bytes @ 0x4
   963     00A4                     	ds	4
   964     00A8                     ??___flge:
   965     00A8                     ?___awdiv:	
   966                           ; 1 bytes @ 0x8
   967                           
   968     00A8                     ___awdiv@divisor:	
   969                           ; 2 bytes @ 0x8
   970                           
   971     00A8                     get_avg_temp@sum:	
   972                           ; 2 bytes @ 0x8
   973                           
   974                           
   975                           ; 4 bytes @ 0x8
   976     00A8                     	ds	2
   977     00AA                     ___awdiv@dividend:
   978                           
   979                           ; 2 bytes @ 0xA
   980     00AA                     	ds	2
   981     00AC                     get_avg_temp@i:
   982     00AC                     ___awdiv@counter:	
   983                           ; 1 bytes @ 0xC
   984                           
   985     00AC                     _upd_PWM$1280:	
   986                           ; 1 bytes @ 0xC
   987                           
   988                           
   989                           ; 4 bytes @ 0xC
   990     00AC                     	ds	1
   991     00AD                     ___awdiv@sign:
   992                           
   993                           ; 1 bytes @ 0xD
   994     00AD                     	ds	1
   995     00AE                     ___awdiv@quotient:
   996                           
   997                           ; 2 bytes @ 0xE
   998     00AE                     	ds	2
   999     00B0                     ?___awmod:
  1000     00B0                     ___awmod@divisor:	
  1001                           ; 2 bytes @ 0x10
  1002                           
  1003     00B0                     upd_PWM@err:	
  1004                           ; 2 bytes @ 0x10
  1005                           
  1006                           
  1007                           ; 4 bytes @ 0x10
  1008     00B0                     	ds	2
  1009     00B2                     ___awmod@dividend:
  1010                           
  1011                           ; 2 bytes @ 0x12
  1012     00B2                     	ds	2
  1013     00B4                     ??___awmod:
  1014                           
  1015                           ; 1 bytes @ 0x14
  1016     00B4                     	ds	1
  1017     00B5                     ___awmod@counter:
  1018                           
  1019                           ; 1 bytes @ 0x15
  1020     00B5                     	ds	1
  1021     00B6                     ___awmod@sign:
  1022                           
  1023                           ; 1 bytes @ 0x16
  1024     00B6                     	ds	1
  1025     00B7                     ?_upd_disp:
  1026     00B7                     upd_disp@dat:	
  1027                           ; 1 bytes @ 0x17
  1028                           
  1029                           
  1030                           ; 4 bytes @ 0x17
  1031     00B7                     	ds	4
  1032     00BB                     ??_upd_disp:
  1033                           
  1034                           ; 1 bytes @ 0x1B
  1035     00BB                     	ds	2
  1036     00BD                     upd_disp@TEMPF:
  1037                           
  1038                           ; 4 bytes @ 0x1D
  1039     00BD                     	ds	4
  1040                           
  1041                           	psect	cstackCOMMON
  1042     0070                     __pcstackCOMMON:
  1043     0070                     ?_SPI_read:
  1044     0070                     ?_SPI_out:	
  1045                           ; 1 bytes @ 0x0
  1046                           
  1047     0070                     ??_SPI_out:	
  1048                           ; 1 bytes @ 0x0
  1049                           
  1050     0070                     ?_ref_disp:	
  1051                           ; 1 bytes @ 0x0
  1052                           
  1053     0070                     ?_upd_PWM:	
  1054                           ; 1 bytes @ 0x0
  1055                           
  1056     0070                     ?_ISR:	
  1057                           ; 1 bytes @ 0x0
  1058                           
  1059     0070                     ?_init:	
  1060                           ; 1 bytes @ 0x0
  1061                           
  1062     0070                     ?_main:	
  1063                           ; 1 bytes @ 0x0
  1064                           
  1065     0070                     SPI_out@dat:	
  1066                           ; 1 bytes @ 0x0
  1067                           
  1068                           
  1069                           ; 1 bytes @ 0x0
  1070     0070                     	ds	1
  1071     0071                     ??_ref_disp:
  1072                           
  1073                           ; 1 bytes @ 0x1
  1074     0071                     	ds	1
  1075     0072                     ?___fleq:
  1076     0072                     ??_SPI_read:	
  1077                           ; 1 bit 
  1078                           
  1079     0072                     ?_set_PWM:	
  1080                           ; 1 bytes @ 0x2
  1081                           
  1082     0072                     ??_ISR:	
  1083                           ; 1 bytes @ 0x2
  1084                           
  1085     0072                     ??_init:	
  1086                           ; 1 bytes @ 0x2
  1087                           
  1088     0072                     ?__Umul8_16:	
  1089                           ; 1 bytes @ 0x2
  1090                           
  1091     0072                     ?_read_TC:	
  1092                           ; 2 bytes @ 0x2
  1093                           
  1094     0072                     ?___xxtofl:	
  1095                           ; 2 bytes @ 0x2
  1096                           
  1097     0072                     __Umul8_16@multiplicand:	
  1098                           ; 4 bytes @ 0x2
  1099                           
  1100     0072                     set_PWM@PWM:	
  1101                           ; 1 bytes @ 0x2
  1102                           
  1103     0072                     ___fleq@ff1:	
  1104                           ; 2 bytes @ 0x2
  1105                           
  1106     0072                     ___xxtofl@val:	
  1107                           ; 4 bytes @ 0x2
  1108                           
  1109                           
  1110                           ; 4 bytes @ 0x2
  1111     0072                     	ds	2
  1112     0074                     ??__Umul8_16:
  1113     0074                     ??_read_TC:	
  1114                           ; 1 bytes @ 0x4
  1115                           
  1116     0074                     ??_set_PWM:	
  1117                           ; 1 bytes @ 0x4
  1118                           
  1119                           
  1120                           ; 1 bytes @ 0x4
  1121     0074                     	ds	2
  1122     0076                     ??___xxtofl:
  1123     0076                     read_TC@DAT_BUFFER:	
  1124                           ; 1 bytes @ 0x6
  1125                           
  1126     0076                     ___fleq@ff2:	
  1127                           ; 2 bytes @ 0x6
  1128                           
  1129                           
  1130                           ; 4 bytes @ 0x6
  1131     0076                     	ds	2
  1132     0078                     ?_buff_put:
  1133     0078                     buff_put@dat:	
  1134                           ; 1 bytes @ 0x8
  1135                           
  1136                           
  1137                           ; 2 bytes @ 0x8
  1138     0078                     	ds	2
  1139     007A                     ??_upd_PWM:
  1140     007A                     ??_main:	
  1141                           ; 1 bytes @ 0xA
  1142                           
  1143     007A                     ??___flsub:	
  1144                           ; 1 bytes @ 0xA
  1145                           
  1146                           
  1147                           	psect	cstackBANK0
  1148     0020                     __pcstackBANK0:	
  1149                           ; 1 bytes @ 0xA
  1150                           
  1151     0020                     ??_buff_put:
  1152     0020                     ??___fleq:	
  1153                           ; 1 bytes @ 0x0
  1154                           
  1155     0020                     ___xxtofl@sign:	
  1156                           ; 1 bytes @ 0x0
  1157                           
  1158     0020                     __Umul8_16@product:	
  1159                           ; 1 bytes @ 0x0
  1160                           
  1161                           
  1162                           ; 2 bytes @ 0x0
  1163     0020                     	ds	1
  1164     0021                     ___xxtofl@exp:
  1165                           
  1166                           ; 1 bytes @ 0x1
  1167     0021                     	ds	1
  1168     0022                     __Umul8_16@word_mpld:
  1169     0022                     ___xxtofl@arg:	
  1170                           ; 2 bytes @ 0x2
  1171                           
  1172                           
  1173                           ; 4 bytes @ 0x2
  1174     0022                     	ds	2
  1175     0024                     __Umul8_16@multiplier:
  1176                           
  1177                           ; 1 bytes @ 0x4
  1178     0024                     	ds	1
  1179     0025                     ?___flmul:
  1180     0025                     ___flmul@b:	
  1181                           ; 4 bytes @ 0x5
  1182                           
  1183                           
  1184                           ; 4 bytes @ 0x5
  1185     0025                     	ds	4
  1186     0029                     ___flmul@a:
  1187                           
  1188                           ; 4 bytes @ 0x9
  1189     0029                     	ds	4
  1190     002D                     ??___flmul:
  1191                           
  1192                           ; 1 bytes @ 0xD
  1193     002D                     	ds	5
  1194     0032                     ___flmul@sign:
  1195                           
  1196                           ; 1 bytes @ 0x12
  1197     0032                     	ds	1
  1198     0033                     ___flmul@aexp:
  1199                           
  1200                           ; 1 bytes @ 0x13
  1201     0033                     	ds	1
  1202     0034                     ___flmul@grs:
  1203                           
  1204                           ; 4 bytes @ 0x14
  1205     0034                     	ds	4
  1206     0038                     ___flmul@bexp:
  1207                           
  1208                           ; 1 bytes @ 0x18
  1209     0038                     	ds	1
  1210     0039                     ___flmul@prod:
  1211                           
  1212                           ; 4 bytes @ 0x19
  1213     0039                     	ds	4
  1214     003D                     ___flmul@temp:
  1215                           
  1216                           ; 2 bytes @ 0x1D
  1217     003D                     	ds	2
  1218     003F                     ?___fldiv:
  1219     003F                     ___fldiv@a:	
  1220                           ; 4 bytes @ 0x1F
  1221                           
  1222                           
  1223                           ; 4 bytes @ 0x1F
  1224     003F                     	ds	4
  1225     0043                     ___fldiv@b:
  1226                           
  1227                           ; 4 bytes @ 0x23
  1228     0043                     	ds	4
  1229     0047                     ??___fldiv:
  1230                           
  1231                           ; 1 bytes @ 0x27
  1232     0047                     	ds	5
  1233     004C                     ___fldiv@rem:
  1234                           
  1235                           ; 4 bytes @ 0x2C
  1236     004C                     	ds	4
  1237     0050                     ___fldiv@sign:
  1238                           
  1239                           ; 1 bytes @ 0x30
  1240     0050                     	ds	1
  1241     0051                     ___fldiv@new_exp:
  1242                           
  1243                           ; 2 bytes @ 0x31
  1244     0051                     	ds	2
  1245     0053                     ___fldiv@grs:
  1246                           
  1247                           ; 4 bytes @ 0x33
  1248     0053                     	ds	4
  1249     0057                     ___fldiv@bexp:
  1250                           
  1251                           ; 1 bytes @ 0x37
  1252     0057                     	ds	1
  1253     0058                     ___fldiv@aexp:
  1254                           
  1255                           ; 1 bytes @ 0x38
  1256     0058                     	ds	1
  1257     0059                     ?___fladd:
  1258     0059                     ___fladd@b:	
  1259                           ; 4 bytes @ 0x39
  1260                           
  1261                           
  1262                           ; 4 bytes @ 0x39
  1263     0059                     	ds	4
  1264     005D                     ___fladd@a:
  1265                           
  1266                           ; 4 bytes @ 0x3D
  1267     005D                     	ds	4
  1268     0061                     ??___fladd:
  1269                           
  1270                           ; 1 bytes @ 0x41
  1271     0061                     	ds	8
  1272     0069                     ___fladd@signs:
  1273                           
  1274                           ; 1 bytes @ 0x49
  1275     0069                     	ds	1
  1276     006A                     ___fladd@aexp:
  1277                           
  1278                           ; 1 bytes @ 0x4A
  1279     006A                     	ds	1
  1280     006B                     ___fladd@bexp:
  1281                           
  1282                           ; 1 bytes @ 0x4B
  1283     006B                     	ds	1
  1284     006C                     ___fladd@grs:
  1285                           
  1286                           ; 1 bytes @ 0x4C
  1287     006C                     	ds	1
  1288     006D                     ??_get_avg_temp:
  1289     006D                     ___fltol@sign1:	
  1290                           ; 1 bytes @ 0x4D
  1291                           
  1292                           
  1293                           ; 1 bytes @ 0x4D
  1294     006D                     	ds	1
  1295     006E                     ___fltol@exp1:
  1296                           
  1297                           ; 1 bytes @ 0x4E
  1298     006E                     	ds	1
  1299     006F                     ??___awdiv:
  1300                           
  1301                           ; 1 bytes @ 0x4F
  1302     006F                     	ds	1
  1303                           
  1304                           	psect	maintext
  1305     0C73                     __pmaintext:	
  1306 ;;
  1307 ;;Main: autosize = 0, tempsize = 0, incstack = 0, save=0
  1308 ;;
  1309 ;; *************** function _main *****************
  1310 ;; Defined at:
  1311 ;;		line 335 in file "main.c"
  1312 ;; Parameters:    Size  Location     Type
  1313 ;;		None
  1314 ;; Auto vars:     Size  Location     Type
  1315 ;;		None
  1316 ;; Return value:  Size  Location     Type
  1317 ;;                  1    wreg      void 
  1318 ;; Registers used:
  1319 ;;		wreg, fsr1l, fsr1h, status,2, status,0, pclath, cstack
  1320 ;; Tracked objects:
  1321 ;;		On entry : B1F/0
  1322 ;;		On exit  : 0/0
  1323 ;;		Unchanged: 0/0
  1324 ;; Data sizes:     COMMON   BANK0   BANK1   BANK2   BANK3   BANK4   BANK5   BANK6
  1325 ;;      Params:         0       0       0       0       0       0       0       0
  1326 ;;      Locals:         0       0       0       0       0       0       0       0
  1327 ;;      Temps:          0       0       0       0       0       0       0       0
  1328 ;;      Totals:         0       0       0       0       0       0       0       0
  1329 ;;Total ram usage:        0 bytes
  1330 ;; Hardware stack levels required when called: 6
  1331 ;; This function calls:
  1332 ;;		___flge
  1333 ;;		_buff_put
  1334 ;;		_get_avg_temp
  1335 ;;		_init
  1336 ;;		_read_TC
  1337 ;;		_set_PWM
  1338 ;;		_upd_PWM
  1339 ;;		_upd_disp
  1340 ;; This function is called by:
  1341 ;;		Startup code after reset
  1342 ;; This function uses a non-reentrant model
  1343 ;;
  1344                           
  1345     0C73                     _main:	
  1346                           ;psect for function _main
  1347                           
  1348     0C73                     l3054:	
  1349                           ;incstack = 0
  1350                           ; Regs used in _main: [wreg+fsr1l+fsr1h+status,2+status,0+pclath+cstack]
  1351                           
  1352                           
  1353                           ;main.c: 337:     init();
  1354     0C73  318A  22F6  318C   	fcall	_init
  1355                           
  1356                           ;main.c: 339:     set_PWM(0);
  1357     0C76  3000               	movlw	0
  1358     0C77  00F2               	movwf	set_PWM@PWM
  1359     0C78  00F3               	movwf	set_PWM@PWM+1
  1360     0C79  3189  217B  318C   	fcall	_set_PWM
  1361                           
  1362                           ;main.c: 341:     while(!buff_full) {
  1363     0C7C  2C8D               	goto	l3060
  1364     0C7D                     l191:
  1365                           
  1366                           ;main.c: 342:         if (flags.TC_read) {
  1367     0C7D  1C51               	btfss	_flags^(0+128),0
  1368     0C7E  2C80               	goto	u4191
  1369     0C7F  2C81               	goto	u4190
  1370     0C80                     u4191:
  1371     0C80  2C8D               	goto	l3060
  1372     0C81                     u4190:
  1373     0C81                     l3056:
  1374                           
  1375                           ;main.c: 343:             buff_put(read_TC());
  1376     0C81  3189  21A3  318C   	fcall	_read_TC
  1377     0C84  0873               	movf	?_read_TC+1,w
  1378     0C85  00F9               	movwf	buff_put@dat+1
  1379     0C86  0872               	movf	?_read_TC,w
  1380     0C87  00F8               	movwf	buff_put@dat
  1381     0C88  3189  218A  318C   	fcall	_buff_put
  1382     0C8B                     l3058:
  1383                           
  1384                           ;main.c: 344:             flags.TC_read = 0;
  1385     0C8B  0021               	movlb	1	; select bank1
  1386     0C8C  1051               	bcf	_flags^(0+128),0
  1387     0C8D                     l3060:
  1388                           
  1389                           ;main.c: 341:     while(!buff_full) {
  1390     0C8D  0021               	movlb	1	; select bank1
  1391     0C8E  0855               	movf	_buff_full^(0+128),w
  1392     0C8F  1903               	btfsc	3,2
  1393     0C90  2C92               	goto	u4201
  1394     0C91  2C93               	goto	u4200
  1395     0C92                     u4201:
  1396     0C92  2C7D               	goto	l191
  1397     0C93                     u4200:
  1398     0C93                     l3062:
  1399                           
  1400                           ;main.c: 348:     cur_temp = get_avg_temp();
  1401     0C93  3187  2700  318C   	fcall	_get_avg_temp
  1402     0C96  0021               	movlb	1	; select bank1
  1403     0C97  0823               	movf	(?_get_avg_temp+3)^(0+128),w
  1404     0C98  00CC               	movwf	(_cur_temp+3)^(0+128)
  1405     0C99  0822               	movf	(?_get_avg_temp+2)^(0+128),w
  1406     0C9A  00CB               	movwf	(_cur_temp+2)^(0+128)
  1407     0C9B  0821               	movf	(?_get_avg_temp+1)^(0+128),w
  1408     0C9C  00CA               	movwf	(_cur_temp+1)^(0+128)
  1409     0C9D  0820               	movf	?_get_avg_temp^(0+128),w
  1410     0C9E  00C9               	movwf	_cur_temp^(0+128)
  1411     0C9F                     l3064:
  1412                           
  1413                           ;main.c: 350:     upd_disp(cur_temp);
  1414     0C9F  084C               	movf	(_cur_temp+3)^(0+128),w
  1415     0CA0  00BA               	movwf	(upd_disp@dat+3)^(0+128)
  1416     0CA1  084B               	movf	(_cur_temp+2)^(0+128),w
  1417     0CA2  00B9               	movwf	(upd_disp@dat+2)^(0+128)
  1418     0CA3  084A               	movf	(_cur_temp+1)^(0+128),w
  1419     0CA4  00B8               	movwf	(upd_disp@dat+1)^(0+128)
  1420     0CA5  0849               	movf	_cur_temp^(0+128),w
  1421     0CA6  00B7               	movwf	upd_disp@dat^(0+128)
  1422     0CA7  318D  250E  318C   	fcall	_upd_disp
  1423     0CAA                     l3066:
  1424                           
  1425                           ;main.c: 352:     if (cur_temp >= 24) {
  1426     0CAA  0021               	movlb	1	; select bank1
  1427     0CAB  084C               	movf	(_cur_temp+3)^(0+128),w
  1428     0CAC  00A3               	movwf	(___flge@ff1+3)^(0+128)
  1429     0CAD  084B               	movf	(_cur_temp+2)^(0+128),w
  1430     0CAE  00A2               	movwf	(___flge@ff1+2)^(0+128)
  1431     0CAF  084A               	movf	(_cur_temp+1)^(0+128),w
  1432     0CB0  00A1               	movwf	(___flge@ff1+1)^(0+128)
  1433     0CB1  0849               	movf	_cur_temp^(0+128),w
  1434     0CB2  00A0               	movwf	___flge@ff1^(0+128)
  1435     0CB3  3041               	movlw	65
  1436     0CB4  00A7               	movwf	(___flge@ff2+3)^(0+128)
  1437     0CB5  30C0               	movlw	192
  1438     0CB6  00A6               	movwf	(___flge@ff2+2)^(0+128)
  1439     0CB7  3000               	movlw	0
  1440     0CB8  00A5               	movwf	(___flge@ff2+1)^(0+128)
  1441     0CB9  3000               	movlw	0
  1442     0CBA  00A4               	movwf	___flge@ff2^(0+128)
  1443     0CBB  318B  23E8  318C   	fcall	___flge
  1444     0CBE  1C03               	btfss	3,0
  1445     0CBF  2CC1               	goto	u4211
  1446     0CC0  2CC2               	goto	u4210
  1447     0CC1                     u4211:
  1448     0CC1  2CCD               	goto	l194
  1449     0CC2                     u4210:
  1450     0CC2                     l3068:
  1451                           
  1452                           ;main.c: 353:         LATCbits.LATC3 = 1;
  1453     0CC2  0022               	movlb	2	; select bank2
  1454     0CC3  158E               	bsf	14,3	;volatile
  1455                           
  1456                           ;main.c: 354:         LATBbits.LATB7 = 0;
  1457     0CC4  138D               	bcf	13,7	;volatile
  1458                           
  1459                           ;main.c: 355:         LATCbits.LATC6 = 0;
  1460     0CC5  130E               	bcf	14,6	;volatile
  1461     0CC6                     l3070:
  1462                           
  1463                           ;main.c: 357:         mode = 0;
  1464     0CC6  0021               	movlb	1	; select bank1
  1465     0CC7  01D2               	clrf	_mode^(0+128)
  1466     0CC8                     l3072:
  1467                           
  1468                           ;main.c: 359:         PWM_max = 1023;
  1469     0CC8  30FF               	movlw	255
  1470     0CC9  00CD               	movwf	_PWM_max^(0+128)
  1471     0CCA  3003               	movlw	3
  1472     0CCB  00CE               	movwf	(_PWM_max^(0+128)+1)
  1473                           
  1474                           ;main.c: 360:     } else {
  1475     0CCC  2CD8               	goto	l3076
  1476     0CCD                     l194:
  1477                           
  1478                           ;main.c: 361:         LATCbits.LATC3 = 0;
  1479     0CCD  0022               	movlb	2	; select bank2
  1480     0CCE  118E               	bcf	14,3	;volatile
  1481                           
  1482                           ;main.c: 362:         LATBbits.LATB7 = 1;
  1483     0CCF  178D               	bsf	13,7	;volatile
  1484                           
  1485                           ;main.c: 363:         LATCbits.LATC6 = 1;
  1486     0CD0  170E               	bsf	14,6	;volatile
  1487                           
  1488                           ;main.c: 365:         mode = 1;
  1489     0CD1  0021               	movlb	1	; select bank1
  1490     0CD2  01D2               	clrf	_mode^(0+128)
  1491     0CD3  0AD2               	incf	_mode^(0+128),f
  1492     0CD4                     l3074:
  1493                           
  1494                           ;main.c: 367:         PWM_max = 511;
  1495     0CD4  30FF               	movlw	255
  1496     0CD5  00CD               	movwf	_PWM_max^(0+128)
  1497     0CD6  3001               	movlw	1
  1498     0CD7  00CE               	movwf	(_PWM_max^(0+128)+1)
  1499     0CD8                     l3076:
  1500                           
  1501                           ;main.c: 372:         if (flags.TC_read) {
  1502     0CD8  0021               	movlb	1	; select bank1
  1503     0CD9  1C51               	btfss	_flags^(0+128),0
  1504     0CDA  2CDC               	goto	u4221
  1505     0CDB  2CDD               	goto	u4220
  1506     0CDC                     u4221:
  1507     0CDC  2CD8               	goto	l3076
  1508     0CDD                     u4220:
  1509     0CDD                     l3078:
  1510                           
  1511                           ;main.c: 373:             buff_put(read_TC());
  1512     0CDD  3189  21A3  318C   	fcall	_read_TC
  1513     0CE0  0873               	movf	?_read_TC+1,w
  1514     0CE1  00F9               	movwf	buff_put@dat+1
  1515     0CE2  0872               	movf	?_read_TC,w
  1516     0CE3  00F8               	movwf	buff_put@dat
  1517     0CE4  3189  218A  318C   	fcall	_buff_put
  1518     0CE7                     l3080:
  1519                           
  1520                           ;main.c: 375:             flags.TC_read = 0;
  1521     0CE7  0021               	movlb	1	; select bank1
  1522     0CE8  1051               	bcf	_flags^(0+128),0
  1523                           
  1524                           ;main.c: 377:             cur_temp = get_avg_temp();
  1525     0CE9  3187  2700  318C   	fcall	_get_avg_temp
  1526     0CEC  0021               	movlb	1	; select bank1
  1527     0CED  0823               	movf	(?_get_avg_temp+3)^(0+128),w
  1528     0CEE  00CC               	movwf	(_cur_temp+3)^(0+128)
  1529     0CEF  0822               	movf	(?_get_avg_temp+2)^(0+128),w
  1530     0CF0  00CB               	movwf	(_cur_temp+2)^(0+128)
  1531     0CF1  0821               	movf	(?_get_avg_temp+1)^(0+128),w
  1532     0CF2  00CA               	movwf	(_cur_temp+1)^(0+128)
  1533     0CF3  0820               	movf	?_get_avg_temp^(0+128),w
  1534     0CF4  00C9               	movwf	_cur_temp^(0+128)
  1535     0CF5                     l3082:
  1536                           
  1537                           ;main.c: 379:             upd_disp(cur_temp);
  1538     0CF5  084C               	movf	(_cur_temp+3)^(0+128),w
  1539     0CF6  00BA               	movwf	(upd_disp@dat+3)^(0+128)
  1540     0CF7  084B               	movf	(_cur_temp+2)^(0+128),w
  1541     0CF8  00B9               	movwf	(upd_disp@dat+2)^(0+128)
  1542     0CF9  084A               	movf	(_cur_temp+1)^(0+128),w
  1543     0CFA  00B8               	movwf	(upd_disp@dat+1)^(0+128)
  1544     0CFB  0849               	movf	_cur_temp^(0+128),w
  1545     0CFC  00B7               	movwf	upd_disp@dat^(0+128)
  1546     0CFD  318D  250E  318C   	fcall	_upd_disp
  1547     0D00                     l3084:
  1548                           
  1549                           ;main.c: 380:             upd_PWM();
  1550     0D00  3180  204E  318C   	fcall	_upd_PWM
  1551     0D03                     l3086:
  1552                           
  1553                           ;main.c: 381:             set_PWM(cur_PWM);
  1554     0D03  0021               	movlb	1	; select bank1
  1555     0D04  0850               	movf	(_cur_PWM+1)^(0+128),w
  1556     0D05  00F3               	movwf	set_PWM@PWM+1
  1557     0D06  084F               	movf	_cur_PWM^(0+128),w
  1558     0D07  00F2               	movwf	set_PWM@PWM
  1559     0D08  3189  217B  318C   	fcall	_set_PWM
  1560     0D0B  2CD8               	goto	l3076
  1561     0D0C  3180  2825         	ljmp	start
  1562     0D0E                     __end_of_main:
  1563                           
  1564                           	psect	text1
  1565     0D0E                     __ptext1:	
  1566 ;; *************** function _upd_disp *****************
  1567 ;; Defined at:
  1568 ;;		line 142 in file "main.c"
  1569 ;; Parameters:    Size  Location     Type
  1570 ;;  dat             4   23[BANK1 ] float 
  1571 ;; Auto vars:     Size  Location     Type
  1572 ;;  TEMPF           4   29[BANK1 ] float 
  1573 ;; Return value:  Size  Location     Type
  1574 ;;                  1    wreg      void 
  1575 ;; Registers used:
  1576 ;;		wreg, status,2, status,0, pclath, cstack
  1577 ;; Tracked objects:
  1578 ;;		On entry : 0/0
  1579 ;;		On exit  : 0/0
  1580 ;;		Unchanged: 0/0
  1581 ;; Data sizes:     COMMON   BANK0   BANK1   BANK2   BANK3   BANK4   BANK5   BANK6
  1582 ;;      Params:         0       0       4       0       0       0       0       0
  1583 ;;      Locals:         0       0       4       0       0       0       0       0
  1584 ;;      Temps:          0       0       2       0       0       0       0       0
  1585 ;;      Totals:         0       0      10       0       0       0       0       0
  1586 ;;Total ram usage:       10 bytes
  1587 ;; Hardware stack levels used: 1
  1588 ;; Hardware stack levels required when called: 5
  1589 ;; This function calls:
  1590 ;;		___awdiv
  1591 ;;		___awmod
  1592 ;;		___fladd
  1593 ;;		___fldiv
  1594 ;;		___flmul
  1595 ;;		___fltol
  1596 ;; This function is called by:
  1597 ;;		_main
  1598 ;; This function uses a non-reentrant model
  1599 ;;
  1600                           
  1601     0D0E                     _upd_disp:	
  1602                           ;psect for function _upd_disp
  1603                           
  1604     0D0E                     l2996:	
  1605                           ;incstack = 0
  1606                           ; Regs used in _upd_disp: [wreg+status,2+status,0+pclath+cstack]
  1607                           
  1608                           
  1609                           ;main.c: 144:     float TEMPF = ((float)dat*9/5) + 32;
  1610     0D0E  3042               	movlw	66
  1611     0D0F  0020               	movlb	0	; select bank0
  1612     0D10  00DC               	movwf	___fladd@b+3
  1613     0D11  3000               	movlw	0
  1614     0D12  00DB               	movwf	___fladd@b+2
  1615     0D13  3000               	movlw	0
  1616     0D14  00DA               	movwf	___fladd@b+1
  1617     0D15  3000               	movlw	0
  1618     0D16  00D9               	movwf	___fladd@b
  1619     0D17  3040               	movlw	64
  1620     0D18  00C2               	movwf	___fldiv@a+3
  1621     0D19  30A0               	movlw	160
  1622     0D1A  00C1               	movwf	___fldiv@a+2
  1623     0D1B  3000               	movlw	0
  1624     0D1C  00C0               	movwf	___fldiv@a+1
  1625     0D1D  3000               	movlw	0
  1626     0D1E  00BF               	movwf	___fldiv@a
  1627     0D1F  3041               	movlw	65
  1628     0D20  00A8               	movwf	___flmul@b+3
  1629     0D21  3010               	movlw	16
  1630     0D22  00A7               	movwf	___flmul@b+2
  1631     0D23  3000               	movlw	0
  1632     0D24  00A6               	movwf	___flmul@b+1
  1633     0D25  3000               	movlw	0
  1634     0D26  00A5               	movwf	___flmul@b
  1635     0D27  0021               	movlb	1	; select bank1
  1636     0D28  083A               	movf	(upd_disp@dat+3)^(0+128),w
  1637     0D29  0020               	movlb	0	; select bank0
  1638     0D2A  00AC               	movwf	___flmul@a+3
  1639     0D2B  0021               	movlb	1	; select bank1
  1640     0D2C  0839               	movf	(upd_disp@dat+2)^(0+128),w
  1641     0D2D  0020               	movlb	0	; select bank0
  1642     0D2E  00AB               	movwf	___flmul@a+2
  1643     0D2F  0021               	movlb	1	; select bank1
  1644     0D30  0838               	movf	(upd_disp@dat+1)^(0+128),w
  1645     0D31  0020               	movlb	0	; select bank0
  1646     0D32  00AA               	movwf	___flmul@a+1
  1647     0D33  0021               	movlb	1	; select bank1
  1648     0D34  0837               	movf	upd_disp@dat^(0+128),w
  1649     0D35  0020               	movlb	0	; select bank0
  1650     0D36  00A9               	movwf	___flmul@a
  1651     0D37  3182  22BD  318D   	fcall	___flmul
  1652     0D3A  0020               	movlb	0	; select bank0
  1653     0D3B  0828               	movf	?___flmul+3,w
  1654     0D3C  00C6               	movwf	___fldiv@b+3
  1655     0D3D  0827               	movf	?___flmul+2,w
  1656     0D3E  00C5               	movwf	___fldiv@b+2
  1657     0D3F  0826               	movf	?___flmul+1,w
  1658     0D40  00C4               	movwf	___fldiv@b+1
  1659     0D41  0825               	movf	?___flmul,w
  1660     0D42  00C3               	movwf	___fldiv@b
  1661     0D43  318E  2656  318D   	fcall	___fldiv
  1662     0D46  0020               	movlb	0	; select bank0
  1663     0D47  0842               	movf	?___fldiv+3,w
  1664     0D48  00E0               	movwf	___fladd@a+3
  1665     0D49  0841               	movf	?___fldiv+2,w
  1666     0D4A  00DF               	movwf	___fladd@a+2
  1667     0D4B  0840               	movf	?___fldiv+1,w
  1668     0D4C  00DE               	movwf	___fladd@a+1
  1669     0D4D  083F               	movf	?___fldiv,w
  1670     0D4E  00DD               	movwf	___fladd@a
  1671     0D4F  3184  24F8  318D   	fcall	___fladd
  1672     0D52  0020               	movlb	0	; select bank0
  1673     0D53  085C               	movf	?___fladd+3,w
  1674     0D54  0021               	movlb	1	; select bank1
  1675     0D55  00C0               	movwf	(upd_disp@TEMPF+3)^(0+128)
  1676     0D56  0020               	movlb	0	; select bank0
  1677     0D57  085B               	movf	?___fladd+2,w
  1678     0D58  0021               	movlb	1	; select bank1
  1679     0D59  00BF               	movwf	(upd_disp@TEMPF+2)^(0+128)
  1680     0D5A  0020               	movlb	0	; select bank0
  1681     0D5B  085A               	movf	?___fladd+1,w
  1682     0D5C  0021               	movlb	1	; select bank1
  1683     0D5D  00BE               	movwf	(upd_disp@TEMPF+1)^(0+128)
  1684     0D5E  0020               	movlb	0	; select bank0
  1685     0D5F  0859               	movf	?___fladd,w
  1686     0D60  0021               	movlb	1	; select bank1
  1687     0D61  00BD               	movwf	upd_disp@TEMPF^(0+128)
  1688                           
  1689                           ;main.c: 146:     TEMPF_ones = (((uint8_t)TEMPF)%10) | 0x20;
  1690     0D62  300A               	movlw	10
  1691     0D63  00B0               	movwf	___awmod@divisor^(0+128)
  1692     0D64  3000               	movlw	0
  1693     0D65  00B1               	movwf	(___awmod@divisor^(0+128)+1)
  1694     0D66  0840               	movf	(upd_disp@TEMPF+3)^(0+128),w
  1695     0D67  00A3               	movwf	(___fltol@f1+3)^(0+128)
  1696     0D68  083F               	movf	(upd_disp@TEMPF+2)^(0+128),w
  1697     0D69  00A2               	movwf	(___fltol@f1+2)^(0+128)
  1698     0D6A  083E               	movf	(upd_disp@TEMPF+1)^(0+128),w
  1699     0D6B  00A1               	movwf	(___fltol@f1+1)^(0+128)
  1700     0D6C  083D               	movf	upd_disp@TEMPF^(0+128),w
  1701     0D6D  00A0               	movwf	___fltol@f1^(0+128)
  1702     0D6E  318B  236C  318D   	fcall	___fltol
  1703     0D71  0021               	movlb	1	; select bank1
  1704     0D72  0820               	movf	?___fltol^(0+128),w
  1705     0D73  00BB               	movwf	??_upd_disp^(0+128)
  1706     0D74  01BC               	clrf	(??_upd_disp^(0+128)+1)
  1707     0D75  083B               	movf	??_upd_disp^(0+128),w
  1708     0D76  00B2               	movwf	___awmod@dividend^(0+128)
  1709     0D77  083C               	movf	(??_upd_disp+1)^(0+128),w
  1710     0D78  00B3               	movwf	(___awmod@dividend+1)^(0+128)
  1711     0D79  318A  223E  318D   	fcall	___awmod
  1712     0D7C  0021               	movlb	1	; select bank1
  1713     0D7D  0830               	movf	?___awmod^(0+128),w
  1714     0D7E  3820               	iorlw	32
  1715     0D7F  00DB               	movwf	_TEMPF_ones^(0+128)
  1716                           
  1717                           ;main.c: 147:     TEMPF_tens = (((uint8_t)TEMPF/10)%10) | 0x10;
  1718     0D80  300A               	movlw	10
  1719     0D81  00B0               	movwf	___awmod@divisor^(0+128)
  1720     0D82  3000               	movlw	0
  1721     0D83  00B1               	movwf	(___awmod@divisor^(0+128)+1)
  1722     0D84  300A               	movlw	10
  1723     0D85  00A8               	movwf	___awdiv@divisor^(0+128)
  1724     0D86  3000               	movlw	0
  1725     0D87  00A9               	movwf	(___awdiv@divisor^(0+128)+1)
  1726     0D88  0840               	movf	(upd_disp@TEMPF+3)^(0+128),w
  1727     0D89  00A3               	movwf	(___fltol@f1+3)^(0+128)
  1728     0D8A  083F               	movf	(upd_disp@TEMPF+2)^(0+128),w
  1729     0D8B  00A2               	movwf	(___fltol@f1+2)^(0+128)
  1730     0D8C  083E               	movf	(upd_disp@TEMPF+1)^(0+128),w
  1731     0D8D  00A1               	movwf	(___fltol@f1+1)^(0+128)
  1732     0D8E  083D               	movf	upd_disp@TEMPF^(0+128),w
  1733     0D8F  00A0               	movwf	___fltol@f1^(0+128)
  1734     0D90  318B  236C  318D   	fcall	___fltol
  1735     0D93  0021               	movlb	1	; select bank1
  1736     0D94  0820               	movf	?___fltol^(0+128),w
  1737     0D95  00BB               	movwf	??_upd_disp^(0+128)
  1738     0D96  01BC               	clrf	(??_upd_disp^(0+128)+1)
  1739     0D97  083B               	movf	??_upd_disp^(0+128),w
  1740     0D98  00AA               	movwf	___awdiv@dividend^(0+128)
  1741     0D99  083C               	movf	(??_upd_disp+1)^(0+128),w
  1742     0D9A  00AB               	movwf	(___awdiv@dividend+1)^(0+128)
  1743     0D9B  318A  2292  318D   	fcall	___awdiv
  1744     0D9E  0021               	movlb	1	; select bank1
  1745     0D9F  0829               	movf	(?___awdiv+1)^(0+128),w
  1746     0DA0  00B3               	movwf	(___awmod@dividend+1)^(0+128)
  1747     0DA1  0828               	movf	?___awdiv^(0+128),w
  1748     0DA2  00B2               	movwf	___awmod@dividend^(0+128)
  1749     0DA3  318A  223E  318D   	fcall	___awmod
  1750     0DA6  0021               	movlb	1	; select bank1
  1751     0DA7  0830               	movf	?___awmod^(0+128),w
  1752     0DA8  3810               	iorlw	16
  1753     0DA9  00DA               	movwf	_TEMPF_tens^(0+128)
  1754     0DAA                     l150:
  1755     0DAA  0008               	return
  1756     0DAB                     __end_of_upd_disp:
  1757                           
  1758                           	psect	text2
  1759     0A3E                     __ptext2:	
  1760 ;; *************** function ___awmod *****************
  1761 ;; Defined at:
  1762 ;;		line 5 in file "C:\Program Files\Microchip\xc8\v2.46\pic\sources\c99\common\awmod.c"
  1763 ;; Parameters:    Size  Location     Type
  1764 ;;  divisor         2   16[BANK1 ] int 
  1765 ;;  dividend        2   18[BANK1 ] int 
  1766 ;; Auto vars:     Size  Location     Type
  1767 ;;  sign            1   22[BANK1 ] unsigned char 
  1768 ;;  counter         1   21[BANK1 ] unsigned char 
  1769 ;; Return value:  Size  Location     Type
  1770 ;;                  2   16[BANK1 ] int 
  1771 ;; Registers used:
  1772 ;;		wreg, status,2, status,0
  1773 ;; Tracked objects:
  1774 ;;		On entry : 0/0
  1775 ;;		On exit  : 0/0
  1776 ;;		Unchanged: 0/0
  1777 ;; Data sizes:     COMMON   BANK0   BANK1   BANK2   BANK3   BANK4   BANK5   BANK6
  1778 ;;      Params:         0       0       4       0       0       0       0       0
  1779 ;;      Locals:         0       0       2       0       0       0       0       0
  1780 ;;      Temps:          0       0       1       0       0       0       0       0
  1781 ;;      Totals:         0       0       7       0       0       0       0       0
  1782 ;;Total ram usage:        7 bytes
  1783 ;; Hardware stack levels used: 1
  1784 ;; Hardware stack levels required when called: 3
  1785 ;; This function calls:
  1786 ;;		Nothing
  1787 ;; This function is called by:
  1788 ;;		_upd_disp
  1789 ;; This function uses a non-reentrant model
  1790 ;;
  1791                           
  1792     0A3E                     ___awmod:	
  1793                           ;psect for function ___awmod
  1794                           
  1795     0A3E                     l2030:	
  1796                           ;incstack = 0
  1797                           ; Regs used in ___awmod: [wreg+status,2+status,0]
  1798                           
  1799     0A3E  0021               	movlb	1	; select bank1
  1800     0A3F  01B6               	clrf	___awmod@sign^(0+128)
  1801     0A40                     l2032:
  1802     0A40  1FB3               	btfss	(___awmod@dividend+1)^(0+128),7
  1803     0A41  2A43               	goto	u2361
  1804     0A42  2A44               	goto	u2360
  1805     0A43                     u2361:
  1806     0A43  2A4B               	goto	l2038
  1807     0A44                     u2360:
  1808     0A44                     l2034:
  1809     0A44  09B2               	comf	___awmod@dividend^(0+128),f
  1810     0A45  09B3               	comf	(___awmod@dividend+1)^(0+128),f
  1811     0A46  0AB2               	incf	___awmod@dividend^(0+128),f
  1812     0A47  1903               	skipnz
  1813     0A48  0AB3               	incf	(___awmod@dividend+1)^(0+128),f
  1814     0A49                     l2036:
  1815     0A49  01B6               	clrf	___awmod@sign^(0+128)
  1816     0A4A  0AB6               	incf	___awmod@sign^(0+128),f
  1817     0A4B                     l2038:
  1818     0A4B  1FB1               	btfss	(___awmod@divisor+1)^(0+128),7
  1819     0A4C  2A4E               	goto	u2371
  1820     0A4D  2A4F               	goto	u2370
  1821     0A4E                     u2371:
  1822     0A4E  2A54               	goto	l2042
  1823     0A4F                     u2370:
  1824     0A4F                     l2040:
  1825     0A4F  09B0               	comf	___awmod@divisor^(0+128),f
  1826     0A50  09B1               	comf	(___awmod@divisor+1)^(0+128),f
  1827     0A51  0AB0               	incf	___awmod@divisor^(0+128),f
  1828     0A52  1903               	skipnz
  1829     0A53  0AB1               	incf	(___awmod@divisor+1)^(0+128),f
  1830     0A54                     l2042:
  1831     0A54  0830               	movf	___awmod@divisor^(0+128),w
  1832     0A55  0431               	iorwf	(___awmod@divisor+1)^(0+128),w
  1833     0A56  1903               	btfsc	3,2
  1834     0A57  2A59               	goto	u2381
  1835     0A58  2A5A               	goto	u2380
  1836     0A59                     u2381:
  1837     0A59  2A83               	goto	l2060
  1838     0A5A                     u2380:
  1839     0A5A                     l2044:
  1840     0A5A  01B5               	clrf	___awmod@counter^(0+128)
  1841     0A5B  0AB5               	incf	___awmod@counter^(0+128),f
  1842     0A5C  2A66               	goto	l2050
  1843     0A5D                     l2046:
  1844     0A5D  3001               	movlw	1
  1845     0A5E                     u2395:
  1846     0A5E  35B0               	lslf	___awmod@divisor^(0+128),f
  1847     0A5F  0DB1               	rlf	(___awmod@divisor+1)^(0+128),f
  1848     0A60  0B89               	decfsz	9,f
  1849     0A61  2A5E               	goto	u2395
  1850     0A62                     l2048:
  1851     0A62  3001               	movlw	1
  1852     0A63  00B4               	movwf	??___awmod^(0+128)
  1853     0A64  0834               	movf	??___awmod^(0+128),w
  1854     0A65  07B5               	addwf	___awmod@counter^(0+128),f
  1855     0A66                     l2050:
  1856     0A66  1FB1               	btfss	(___awmod@divisor+1)^(0+128),7
  1857     0A67  2A69               	goto	u2401
  1858     0A68  2A6A               	goto	u2400
  1859     0A69                     u2401:
  1860     0A69  2A5D               	goto	l2046
  1861     0A6A                     u2400:
  1862     0A6A                     l2052:
  1863     0A6A  0831               	movf	(___awmod@divisor+1)^(0+128),w
  1864     0A6B  0233               	subwf	(___awmod@dividend+1)^(0+128),w
  1865     0A6C  1D03               	skipz
  1866     0A6D  2A70               	goto	u2415
  1867     0A6E  0830               	movf	___awmod@divisor^(0+128),w
  1868     0A6F  0232               	subwf	___awmod@dividend^(0+128),w
  1869     0A70                     u2415:
  1870     0A70  1C03               	skipc
  1871     0A71  2A73               	goto	u2411
  1872     0A72  2A74               	goto	u2410
  1873     0A73                     u2411:
  1874     0A73  2A78               	goto	l2056
  1875     0A74                     u2410:
  1876     0A74                     l2054:
  1877     0A74  0830               	movf	___awmod@divisor^(0+128),w
  1878     0A75  02B2               	subwf	___awmod@dividend^(0+128),f
  1879     0A76  0831               	movf	(___awmod@divisor+1)^(0+128),w
  1880     0A77  3BB3               	subwfb	(___awmod@dividend+1)^(0+128),f
  1881     0A78                     l2056:
  1882     0A78  3001               	movlw	1
  1883     0A79                     u2425:
  1884     0A79  36B1               	lsrf	(___awmod@divisor+1)^(0+128),f
  1885     0A7A  0CB0               	rrf	___awmod@divisor^(0+128),f
  1886     0A7B  0B89               	decfsz	9,f
  1887     0A7C  2A79               	goto	u2425
  1888     0A7D                     l2058:
  1889     0A7D  3001               	movlw	1
  1890     0A7E  02B5               	subwf	___awmod@counter^(0+128),f
  1891     0A7F  1D03               	btfss	3,2
  1892     0A80  2A82               	goto	u2431
  1893     0A81  2A83               	goto	u2430
  1894     0A82                     u2431:
  1895     0A82  2A6A               	goto	l2052
  1896     0A83                     u2430:
  1897     0A83                     l2060:
  1898     0A83  0836               	movf	___awmod@sign^(0+128),w
  1899     0A84  1903               	btfsc	3,2
  1900     0A85  2A87               	goto	u2441
  1901     0A86  2A88               	goto	u2440
  1902     0A87                     u2441:
  1903     0A87  2A8D               	goto	l2064
  1904     0A88                     u2440:
  1905     0A88                     l2062:
  1906     0A88  09B2               	comf	___awmod@dividend^(0+128),f
  1907     0A89  09B3               	comf	(___awmod@dividend+1)^(0+128),f
  1908     0A8A  0AB2               	incf	___awmod@dividend^(0+128),f
  1909     0A8B  1903               	skipnz
  1910     0A8C  0AB3               	incf	(___awmod@dividend+1)^(0+128),f
  1911     0A8D                     l2064:
  1912     0A8D  0833               	movf	(___awmod@dividend+1)^(0+128),w
  1913     0A8E  00B1               	movwf	(?___awmod+1)^(0+128)
  1914     0A8F  0832               	movf	___awmod@dividend^(0+128),w
  1915     0A90  00B0               	movwf	?___awmod^(0+128)
  1916     0A91                     l518:
  1917     0A91  0008               	return
  1918     0A92                     __end_of___awmod:
  1919                           
  1920                           	psect	text3
  1921     0A92                     __ptext3:	
  1922 ;; *************** function ___awdiv *****************
  1923 ;; Defined at:
  1924 ;;		line 5 in file "C:\Program Files\Microchip\xc8\v2.46\pic\sources\c99\common\awdiv.c"
  1925 ;; Parameters:    Size  Location     Type
  1926 ;;  divisor         2    8[BANK1 ] int 
  1927 ;;  dividend        2   10[BANK1 ] int 
  1928 ;; Auto vars:     Size  Location     Type
  1929 ;;  quotient        2   14[BANK1 ] int 
  1930 ;;  sign            1   13[BANK1 ] unsigned char 
  1931 ;;  counter         1   12[BANK1 ] unsigned char 
  1932 ;; Return value:  Size  Location     Type
  1933 ;;                  2    8[BANK1 ] int 
  1934 ;; Registers used:
  1935 ;;		wreg, status,2, status,0
  1936 ;; Tracked objects:
  1937 ;;		On entry : 0/0
  1938 ;;		On exit  : 0/0
  1939 ;;		Unchanged: 0/0
  1940 ;; Data sizes:     COMMON   BANK0   BANK1   BANK2   BANK3   BANK4   BANK5   BANK6
  1941 ;;      Params:         0       0       4       0       0       0       0       0
  1942 ;;      Locals:         0       0       4       0       0       0       0       0
  1943 ;;      Temps:          0       1       0       0       0       0       0       0
  1944 ;;      Totals:         0       1       8       0       0       0       0       0
  1945 ;;Total ram usage:        9 bytes
  1946 ;; Hardware stack levels used: 1
  1947 ;; Hardware stack levels required when called: 3
  1948 ;; This function calls:
  1949 ;;		Nothing
  1950 ;; This function is called by:
  1951 ;;		_upd_disp
  1952 ;; This function uses a non-reentrant model
  1953 ;;
  1954                           
  1955     0A92                     ___awdiv:	
  1956                           ;psect for function ___awdiv
  1957                           
  1958     0A92                     l2740:	
  1959                           ;incstack = 0
  1960                           ; Regs used in ___awdiv: [wreg+status,2+status,0]
  1961                           
  1962     0A92  0021               	movlb	1	; select bank1
  1963     0A93  01AD               	clrf	___awdiv@sign^(0+128)
  1964     0A94                     l2742:
  1965     0A94  1FA9               	btfss	(___awdiv@divisor+1)^(0+128),7
  1966     0A95  2A97               	goto	u3571
  1967     0A96  2A98               	goto	u3570
  1968     0A97                     u3571:
  1969     0A97  2A9F               	goto	l2748
  1970     0A98                     u3570:
  1971     0A98                     l2744:
  1972     0A98  09A8               	comf	___awdiv@divisor^(0+128),f
  1973     0A99  09A9               	comf	(___awdiv@divisor+1)^(0+128),f
  1974     0A9A  0AA8               	incf	___awdiv@divisor^(0+128),f
  1975     0A9B  1903               	skipnz
  1976     0A9C  0AA9               	incf	(___awdiv@divisor+1)^(0+128),f
  1977     0A9D                     l2746:
  1978     0A9D  01AD               	clrf	___awdiv@sign^(0+128)
  1979     0A9E  0AAD               	incf	___awdiv@sign^(0+128),f
  1980     0A9F                     l2748:
  1981     0A9F  1FAB               	btfss	(___awdiv@dividend+1)^(0+128),7
  1982     0AA0  2AA2               	goto	u3581
  1983     0AA1  2AA3               	goto	u3580
  1984     0AA2                     u3581:
  1985     0AA2  2AAE               	goto	l2754
  1986     0AA3                     u3580:
  1987     0AA3                     l2750:
  1988     0AA3  09AA               	comf	___awdiv@dividend^(0+128),f
  1989     0AA4  09AB               	comf	(___awdiv@dividend+1)^(0+128),f
  1990     0AA5  0AAA               	incf	___awdiv@dividend^(0+128),f
  1991     0AA6  1903               	skipnz
  1992     0AA7  0AAB               	incf	(___awdiv@dividend+1)^(0+128),f
  1993     0AA8                     l2752:
  1994     0AA8  3001               	movlw	1
  1995     0AA9  0020               	movlb	0	; select bank0
  1996     0AAA  00EF               	movwf	??___awdiv
  1997     0AAB  086F               	movf	??___awdiv,w
  1998     0AAC  0021               	movlb	1	; select bank1
  1999     0AAD  06AD               	xorwf	___awdiv@sign^(0+128),f
  2000     0AAE                     l2754:
  2001     0AAE  01AE               	clrf	___awdiv@quotient^(0+128)
  2002     0AAF  01AF               	clrf	(___awdiv@quotient+1)^(0+128)
  2003     0AB0                     l2756:
  2004     0AB0  0828               	movf	___awdiv@divisor^(0+128),w
  2005     0AB1  0429               	iorwf	(___awdiv@divisor+1)^(0+128),w
  2006     0AB2  1903               	btfsc	3,2
  2007     0AB3  2AB5               	goto	u3591
  2008     0AB4  2AB6               	goto	u3590
  2009     0AB5                     u3591:
  2010     0AB5  2AE7               	goto	l2776
  2011     0AB6                     u3590:
  2012     0AB6                     l2758:
  2013     0AB6  01AC               	clrf	___awdiv@counter^(0+128)
  2014     0AB7  0AAC               	incf	___awdiv@counter^(0+128),f
  2015     0AB8  2AC4               	goto	l2764
  2016     0AB9                     l2760:
  2017     0AB9  3001               	movlw	1
  2018     0ABA                     u3605:
  2019     0ABA  35A8               	lslf	___awdiv@divisor^(0+128),f
  2020     0ABB  0DA9               	rlf	(___awdiv@divisor+1)^(0+128),f
  2021     0ABC  0B89               	decfsz	9,f
  2022     0ABD  2ABA               	goto	u3605
  2023     0ABE                     l2762:
  2024     0ABE  3001               	movlw	1
  2025     0ABF  0020               	movlb	0	; select bank0
  2026     0AC0  00EF               	movwf	??___awdiv
  2027     0AC1  086F               	movf	??___awdiv,w
  2028     0AC2  0021               	movlb	1	; select bank1
  2029     0AC3  07AC               	addwf	___awdiv@counter^(0+128),f
  2030     0AC4                     l2764:
  2031     0AC4  1FA9               	btfss	(___awdiv@divisor+1)^(0+128),7
  2032     0AC5  2AC7               	goto	u3611
  2033     0AC6  2AC8               	goto	u3610
  2034     0AC7                     u3611:
  2035     0AC7  2AB9               	goto	l2760
  2036     0AC8                     u3610:
  2037     0AC8                     l2766:
  2038     0AC8  3001               	movlw	1
  2039     0AC9                     u3625:
  2040     0AC9  35AE               	lslf	___awdiv@quotient^(0+128),f
  2041     0ACA  0DAF               	rlf	(___awdiv@quotient+1)^(0+128),f
  2042     0ACB  0B89               	decfsz	9,f
  2043     0ACC  2AC9               	goto	u3625
  2044     0ACD  0829               	movf	(___awdiv@divisor+1)^(0+128),w
  2045     0ACE  022B               	subwf	(___awdiv@dividend+1)^(0+128),w
  2046     0ACF  1D03               	skipz
  2047     0AD0  2AD3               	goto	u3635
  2048     0AD1  0828               	movf	___awdiv@divisor^(0+128),w
  2049     0AD2  022A               	subwf	___awdiv@dividend^(0+128),w
  2050     0AD3                     u3635:
  2051     0AD3  1C03               	skipc
  2052     0AD4  2AD6               	goto	u3631
  2053     0AD5  2AD7               	goto	u3630
  2054     0AD6                     u3631:
  2055     0AD6  2ADC               	goto	l2772
  2056     0AD7                     u3630:
  2057     0AD7                     l2768:
  2058     0AD7  0828               	movf	___awdiv@divisor^(0+128),w
  2059     0AD8  02AA               	subwf	___awdiv@dividend^(0+128),f
  2060     0AD9  0829               	movf	(___awdiv@divisor+1)^(0+128),w
  2061     0ADA  3BAB               	subwfb	(___awdiv@dividend+1)^(0+128),f
  2062     0ADB                     l2770:
  2063     0ADB  142E               	bsf	___awdiv@quotient^(0+128),0
  2064     0ADC                     l2772:
  2065     0ADC  3001               	movlw	1
  2066     0ADD                     u3645:
  2067     0ADD  36A9               	lsrf	(___awdiv@divisor+1)^(0+128),f
  2068     0ADE  0CA8               	rrf	___awdiv@divisor^(0+128),f
  2069     0ADF  0B89               	decfsz	9,f
  2070     0AE0  2ADD               	goto	u3645
  2071     0AE1                     l2774:
  2072     0AE1  3001               	movlw	1
  2073     0AE2  02AC               	subwf	___awdiv@counter^(0+128),f
  2074     0AE3  1D03               	btfss	3,2
  2075     0AE4  2AE6               	goto	u3651
  2076     0AE5  2AE7               	goto	u3650
  2077     0AE6                     u3651:
  2078     0AE6  2AC8               	goto	l2766
  2079     0AE7                     u3650:
  2080     0AE7                     l2776:
  2081     0AE7  082D               	movf	___awdiv@sign^(0+128),w
  2082     0AE8  1903               	btfsc	3,2
  2083     0AE9  2AEB               	goto	u3661
  2084     0AEA  2AEC               	goto	u3660
  2085     0AEB                     u3661:
  2086     0AEB  2AF1               	goto	l2780
  2087     0AEC                     u3660:
  2088     0AEC                     l2778:
  2089     0AEC  09AE               	comf	___awdiv@quotient^(0+128),f
  2090     0AED  09AF               	comf	(___awdiv@quotient+1)^(0+128),f
  2091     0AEE  0AAE               	incf	___awdiv@quotient^(0+128),f
  2092     0AEF  1903               	skipnz
  2093     0AF0  0AAF               	incf	(___awdiv@quotient+1)^(0+128),f
  2094     0AF1                     l2780:
  2095     0AF1  082F               	movf	(___awdiv@quotient+1)^(0+128),w
  2096     0AF2  00A9               	movwf	(?___awdiv+1)^(0+128)
  2097     0AF3  082E               	movf	___awdiv@quotient^(0+128),w
  2098     0AF4  00A8               	movwf	?___awdiv^(0+128)
  2099     0AF5                     l505:
  2100     0AF5  0008               	return
  2101     0AF6                     __end_of___awdiv:
  2102                           
  2103                           	psect	text4
  2104     004E                     __ptext4:	
  2105 ;; *************** function _upd_PWM *****************
  2106 ;; Defined at:
  2107 ;;		line 179 in file "main.c"
  2108 ;; Parameters:    Size  Location     Type
  2109 ;;		None
  2110 ;; Auto vars:     Size  Location     Type
  2111 ;;  err             4   16[BANK1 ] float 
  2112 ;; Return value:  Size  Location     Type
  2113 ;;                  1    wreg      void 
  2114 ;; Registers used:
  2115 ;;		wreg, status,2, status,0, pclath, cstack
  2116 ;; Tracked objects:
  2117 ;;		On entry : 0/0
  2118 ;;		On exit  : 0/0
  2119 ;;		Unchanged: 0/0
  2120 ;; Data sizes:     COMMON   BANK0   BANK1   BANK2   BANK3   BANK4   BANK5   BANK6
  2121 ;;      Params:         0       0       0       0       0       0       0       0
  2122 ;;      Locals:         0       0       8       0       0       0       0       0
  2123 ;;      Temps:          0       0       0       0       0       0       0       0
  2124 ;;      Totals:         0       0       8       0       0       0       0       0
  2125 ;;Total ram usage:        8 bytes
  2126 ;; Hardware stack levels used: 1
  2127 ;; Hardware stack levels required when called: 5
  2128 ;; This function calls:
  2129 ;;		___fladd
  2130 ;;		___fldiv
  2131 ;;		___fleq
  2132 ;;		___flge
  2133 ;;		___flmul
  2134 ;;		___flsub
  2135 ;;		___fltol
  2136 ;;		___xxtofl
  2137 ;; This function is called by:
  2138 ;;		_main
  2139 ;; This function uses a non-reentrant model
  2140 ;;
  2141                           
  2142     004E                     _upd_PWM:	
  2143                           ;psect for function _upd_PWM
  2144                           
  2145     004E                     l3016:	
  2146                           ;incstack = 0
  2147                           ; Regs used in _upd_PWM: [wreg+status,2+status,0+pclath+cstack]
  2148                           
  2149                           
  2150                           ;main.c: 180:     float err = 24 - cur_temp;
  2151     004E  0021               	movlb	1	; select bank1
  2152     004F  084C               	movf	(_cur_temp+3)^(0+128),w
  2153     0050  00A3               	movwf	(___flsub@a+3)^(0+128)
  2154     0051  084B               	movf	(_cur_temp+2)^(0+128),w
  2155     0052  00A2               	movwf	(___flsub@a+2)^(0+128)
  2156     0053  084A               	movf	(_cur_temp+1)^(0+128),w
  2157     0054  00A1               	movwf	(___flsub@a+1)^(0+128)
  2158     0055  0849               	movf	_cur_temp^(0+128),w
  2159     0056  00A0               	movwf	___flsub@a^(0+128)
  2160     0057  3041               	movlw	65
  2161     0058  00A7               	movwf	(___flsub@b+3)^(0+128)
  2162     0059  30C0               	movlw	192
  2163     005A  00A6               	movwf	(___flsub@b+2)^(0+128)
  2164     005B  3000               	movlw	0
  2165     005C  00A5               	movwf	(___flsub@b+1)^(0+128)
  2166     005D  3000               	movlw	0
  2167     005E  00A4               	movwf	___flsub@b^(0+128)
  2168     005F  318A  2208  3180   	fcall	___flsub
  2169     0062  0021               	movlb	1	; select bank1
  2170     0063  0823               	movf	(?___flsub+3)^(0+128),w
  2171     0064  00B3               	movwf	(upd_PWM@err+3)^(0+128)
  2172     0065  0822               	movf	(?___flsub+2)^(0+128),w
  2173     0066  00B2               	movwf	(upd_PWM@err+2)^(0+128)
  2174     0067  0821               	movf	(?___flsub+1)^(0+128),w
  2175     0068  00B1               	movwf	(upd_PWM@err+1)^(0+128)
  2176     0069  0820               	movf	?___flsub^(0+128),w
  2177     006A  00B0               	movwf	upd_PWM@err^(0+128)
  2178     006B                     l3018:
  2179                           
  2180                           ;main.c: 182:     if (!SP_crossed) {
  2181     006B  0854               	movf	_SP_crossed^(0+128),w
  2182     006C  1D03               	btfss	3,2
  2183     006D  286F               	goto	u4101
  2184     006E  2870               	goto	u4100
  2185     006F                     u4101:
  2186     006F  28BF               	goto	l3036
  2187     0070                     u4100:
  2188     0070                     l3020:
  2189                           
  2190                           ;main.c: 183:         if (mode && !err) {
  2191     0070  0852               	movf	_mode^(0+128),w
  2192     0071  1903               	btfsc	3,2
  2193     0072  2874               	goto	u4111
  2194     0073  2875               	goto	u4110
  2195     0074                     u4111:
  2196     0074  2897               	goto	l3028
  2197     0075                     u4110:
  2198     0075                     l3022:
  2199     0075  0833               	movf	(upd_PWM@err+3)^(0+128),w
  2200     0076  00F5               	movwf	___fleq@ff1+3
  2201     0077  0832               	movf	(upd_PWM@err+2)^(0+128),w
  2202     0078  00F4               	movwf	___fleq@ff1+2
  2203     0079  0831               	movf	(upd_PWM@err+1)^(0+128),w
  2204     007A  00F3               	movwf	___fleq@ff1+1
  2205     007B  0830               	movf	upd_PWM@err^(0+128),w
  2206     007C  00F2               	movwf	___fleq@ff1
  2207     007D  3000               	movlw	0
  2208     007E  00F9               	movwf	___fleq@ff2+3
  2209     007F  3000               	movlw	0
  2210     0080  00F8               	movwf	___fleq@ff2+2
  2211     0081  3000               	movlw	0
  2212     0082  00F7               	movwf	___fleq@ff2+1
  2213     0083  3000               	movlw	0
  2214     0084  00F6               	movwf	___fleq@ff2
  2215     0085  3187  27AF  3180   	fcall	___fleq
  2216     0088  1C03               	btfss	3,0
  2217     0089  288B               	goto	u4121
  2218     008A  288C               	goto	u4120
  2219     008B                     u4121:
  2220     008B  2897               	goto	l3028
  2221     008C                     u4120:
  2222     008C                     l3024:
  2223                           
  2224                           ;main.c: 184:             SP_crossed = 1;
  2225     008C  0021               	movlb	1	; select bank1
  2226     008D  01D4               	clrf	_SP_crossed^(0+128)
  2227     008E  0AD4               	incf	_SP_crossed^(0+128),f
  2228     008F                     l3026:
  2229                           
  2230                           ;main.c: 185:             cum_err = 0;
  2231     008F  3000               	movlw	0
  2232     0090  00C8               	movwf	(_cum_err+3)^(0+128)
  2233     0091  3000               	movlw	0
  2234     0092  00C7               	movwf	(_cum_err+2)^(0+128)
  2235     0093  3000               	movlw	0
  2236     0094  00C6               	movwf	(_cum_err+1)^(0+128)
  2237     0095  3000               	movlw	0
  2238     0096  00C5               	movwf	_cum_err^(0+128)
  2239     0097                     l3028:
  2240                           
  2241                           ;main.c: 188:         if (!mode && err) {
  2242     0097  0021               	movlb	1	; select bank1
  2243     0098  0852               	movf	_mode^(0+128),w
  2244     0099  1D03               	btfss	3,2
  2245     009A  289C               	goto	u4131
  2246     009B  289D               	goto	u4130
  2247     009C                     u4131:
  2248     009C  28BF               	goto	l3036
  2249     009D                     u4130:
  2250     009D                     l3030:
  2251     009D  0833               	movf	(upd_PWM@err+3)^(0+128),w
  2252     009E  00F5               	movwf	___fleq@ff1+3
  2253     009F  0832               	movf	(upd_PWM@err+2)^(0+128),w
  2254     00A0  00F4               	movwf	___fleq@ff1+2
  2255     00A1  0831               	movf	(upd_PWM@err+1)^(0+128),w
  2256     00A2  00F3               	movwf	___fleq@ff1+1
  2257     00A3  0830               	movf	upd_PWM@err^(0+128),w
  2258     00A4  00F2               	movwf	___fleq@ff1
  2259     00A5  3000               	movlw	0
  2260     00A6  00F9               	movwf	___fleq@ff2+3
  2261     00A7  3000               	movlw	0
  2262     00A8  00F8               	movwf	___fleq@ff2+2
  2263     00A9  3000               	movlw	0
  2264     00AA  00F7               	movwf	___fleq@ff2+1
  2265     00AB  3000               	movlw	0
  2266     00AC  00F6               	movwf	___fleq@ff2
  2267     00AD  3187  27AF  3180   	fcall	___fleq
  2268     00B0  1803               	btfsc	3,0
  2269     00B1  28B3               	goto	u4141
  2270     00B2  28B4               	goto	u4140
  2271     00B3                     u4141:
  2272     00B3  28BF               	goto	l3036
  2273     00B4                     u4140:
  2274     00B4                     l3032:
  2275                           
  2276                           ;main.c: 189:             SP_crossed = 1;
  2277     00B4  0021               	movlb	1	; select bank1
  2278     00B5  01D4               	clrf	_SP_crossed^(0+128)
  2279     00B6  0AD4               	incf	_SP_crossed^(0+128),f
  2280     00B7                     l3034:
  2281                           
  2282                           ;main.c: 190:             cum_err = 0;
  2283     00B7  3000               	movlw	0
  2284     00B8  00C8               	movwf	(_cum_err+3)^(0+128)
  2285     00B9  3000               	movlw	0
  2286     00BA  00C7               	movwf	(_cum_err+2)^(0+128)
  2287     00BB  3000               	movlw	0
  2288     00BC  00C6               	movwf	(_cum_err+1)^(0+128)
  2289     00BD  3000               	movlw	0
  2290     00BE  00C5               	movwf	_cum_err^(0+128)
  2291     00BF                     l3036:
  2292                           
  2293                           ;main.c: 194:     if (!mode) {
  2294     00BF  0021               	movlb	1	; select bank1
  2295     00C0  0852               	movf	_mode^(0+128),w
  2296     00C1  1D03               	btfss	3,2
  2297     00C2  28C4               	goto	u4151
  2298     00C3  28C5               	goto	u4150
  2299     00C4                     u4151:
  2300     00C4  28F1               	goto	l167
  2301     00C5                     u4150:
  2302     00C5                     l3038:
  2303                           
  2304                           ;main.c: 195:         err *= -1;
  2305     00C5  30BF               	movlw	191
  2306     00C6  0020               	movlb	0	; select bank0
  2307     00C7  00A8               	movwf	___flmul@b+3
  2308     00C8  3080               	movlw	128
  2309     00C9  00A7               	movwf	___flmul@b+2
  2310     00CA  3000               	movlw	0
  2311     00CB  00A6               	movwf	___flmul@b+1
  2312     00CC  3000               	movlw	0
  2313     00CD  00A5               	movwf	___flmul@b
  2314     00CE  0021               	movlb	1	; select bank1
  2315     00CF  0833               	movf	(upd_PWM@err+3)^(0+128),w
  2316     00D0  0020               	movlb	0	; select bank0
  2317     00D1  00AC               	movwf	___flmul@a+3
  2318     00D2  0021               	movlb	1	; select bank1
  2319     00D3  0832               	movf	(upd_PWM@err+2)^(0+128),w
  2320     00D4  0020               	movlb	0	; select bank0
  2321     00D5  00AB               	movwf	___flmul@a+2
  2322     00D6  0021               	movlb	1	; select bank1
  2323     00D7  0831               	movf	(upd_PWM@err+1)^(0+128),w
  2324     00D8  0020               	movlb	0	; select bank0
  2325     00D9  00AA               	movwf	___flmul@a+1
  2326     00DA  0021               	movlb	1	; select bank1
  2327     00DB  0830               	movf	upd_PWM@err^(0+128),w
  2328     00DC  0020               	movlb	0	; select bank0
  2329     00DD  00A9               	movwf	___flmul@a
  2330     00DE  3182  22BD  3180   	fcall	___flmul
  2331     00E1  0020               	movlb	0	; select bank0
  2332     00E2  0828               	movf	?___flmul+3,w
  2333     00E3  0021               	movlb	1	; select bank1
  2334     00E4  00B3               	movwf	(upd_PWM@err+3)^(0+128)
  2335     00E5  0020               	movlb	0	; select bank0
  2336     00E6  0827               	movf	?___flmul+2,w
  2337     00E7  0021               	movlb	1	; select bank1
  2338     00E8  00B2               	movwf	(upd_PWM@err+2)^(0+128)
  2339     00E9  0020               	movlb	0	; select bank0
  2340     00EA  0826               	movf	?___flmul+1,w
  2341     00EB  0021               	movlb	1	; select bank1
  2342     00EC  00B1               	movwf	(upd_PWM@err+1)^(0+128)
  2343     00ED  0020               	movlb	0	; select bank0
  2344     00EE  0825               	movf	?___flmul,w
  2345     00EF  0021               	movlb	1	; select bank1
  2346     00F0  00B0               	movwf	upd_PWM@err^(0+128)
  2347     00F1                     l167:	
  2348                           ;main.c: 196:     }
  2349                           
  2350                           
  2351                           ;main.c: 198:     cum_err += 0.13*(prev_err + err)/2;
  2352     00F1  0844               	movf	(_prev_err+3)^(0+128),w
  2353     00F2  0020               	movlb	0	; select bank0
  2354     00F3  00E0               	movwf	___fladd@a+3
  2355     00F4  0021               	movlb	1	; select bank1
  2356     00F5  0843               	movf	(_prev_err+2)^(0+128),w
  2357     00F6  0020               	movlb	0	; select bank0
  2358     00F7  00DF               	movwf	___fladd@a+2
  2359     00F8  0021               	movlb	1	; select bank1
  2360     00F9  0842               	movf	(_prev_err+1)^(0+128),w
  2361     00FA  0020               	movlb	0	; select bank0
  2362     00FB  00DE               	movwf	___fladd@a+1
  2363     00FC  0021               	movlb	1	; select bank1
  2364     00FD  0841               	movf	_prev_err^(0+128),w
  2365     00FE  0020               	movlb	0	; select bank0
  2366     00FF  00DD               	movwf	___fladd@a
  2367     0100  0021               	movlb	1	; select bank1
  2368     0101  0833               	movf	(upd_PWM@err+3)^(0+128),w
  2369     0102  0020               	movlb	0	; select bank0
  2370     0103  00DC               	movwf	___fladd@b+3
  2371     0104  0021               	movlb	1	; select bank1
  2372     0105  0832               	movf	(upd_PWM@err+2)^(0+128),w
  2373     0106  0020               	movlb	0	; select bank0
  2374     0107  00DB               	movwf	___fladd@b+2
  2375     0108  0021               	movlb	1	; select bank1
  2376     0109  0831               	movf	(upd_PWM@err+1)^(0+128),w
  2377     010A  0020               	movlb	0	; select bank0
  2378     010B  00DA               	movwf	___fladd@b+1
  2379     010C  0021               	movlb	1	; select bank1
  2380     010D  0830               	movf	upd_PWM@err^(0+128),w
  2381     010E  0020               	movlb	0	; select bank0
  2382     010F  00D9               	movwf	___fladd@b
  2383     0110  3184  24F8  3180   	fcall	___fladd
  2384     0113  0020               	movlb	0	; select bank0
  2385     0114  085C               	movf	?___fladd+3,w
  2386     0115  00AC               	movwf	___flmul@a+3
  2387     0116  085B               	movf	?___fladd+2,w
  2388     0117  00AB               	movwf	___flmul@a+2
  2389     0118  085A               	movf	?___fladd+1,w
  2390     0119  00AA               	movwf	___flmul@a+1
  2391     011A  0859               	movf	?___fladd,w
  2392     011B  00A9               	movwf	___flmul@a
  2393     011C  303E               	movlw	62
  2394     011D  00A8               	movwf	___flmul@b+3
  2395     011E  3005               	movlw	5
  2396     011F  00A7               	movwf	___flmul@b+2
  2397     0120  301E               	movlw	30
  2398     0121  00A6               	movwf	___flmul@b+1
  2399     0122  30B8               	movlw	184
  2400     0123  00A5               	movwf	___flmul@b
  2401     0124  3182  22BD  3180   	fcall	___flmul
  2402     0127  0020               	movlb	0	; select bank0
  2403     0128  0828               	movf	?___flmul+3,w
  2404     0129  00C6               	movwf	___fldiv@b+3
  2405     012A  0827               	movf	?___flmul+2,w
  2406     012B  00C5               	movwf	___fldiv@b+2
  2407     012C  0826               	movf	?___flmul+1,w
  2408     012D  00C4               	movwf	___fldiv@b+1
  2409     012E  0825               	movf	?___flmul,w
  2410     012F  00C3               	movwf	___fldiv@b
  2411     0130  3040               	movlw	64
  2412     0131  00C2               	movwf	___fldiv@a+3
  2413     0132  3000               	movlw	0
  2414     0133  00C1               	movwf	___fldiv@a+2
  2415     0134  3000               	movlw	0
  2416     0135  00C0               	movwf	___fldiv@a+1
  2417     0136  3000               	movlw	0
  2418     0137  00BF               	movwf	___fldiv@a
  2419     0138  318E  2656  3180   	fcall	___fldiv
  2420     013B  0020               	movlb	0	; select bank0
  2421     013C  0842               	movf	?___fldiv+3,w
  2422     013D  0021               	movlb	1	; select bank1
  2423     013E  00AF               	movwf	(_upd_PWM$1280+3)^(0+128)
  2424     013F  0020               	movlb	0	; select bank0
  2425     0140  0841               	movf	?___fldiv+2,w
  2426     0141  0021               	movlb	1	; select bank1
  2427     0142  00AE               	movwf	(_upd_PWM$1280+2)^(0+128)
  2428     0143  0020               	movlb	0	; select bank0
  2429     0144  0840               	movf	?___fldiv+1,w
  2430     0145  0021               	movlb	1	; select bank1
  2431     0146  00AD               	movwf	(_upd_PWM$1280+1)^(0+128)
  2432     0147  0020               	movlb	0	; select bank0
  2433     0148  083F               	movf	?___fldiv,w
  2434     0149  0021               	movlb	1	; select bank1
  2435     014A  00AC               	movwf	_upd_PWM$1280^(0+128)
  2436                           
  2437                           ;main.c: 198:     cum_err += 0.13*(prev_err + err)/2;
  2438     014B  082F               	movf	(_upd_PWM$1280+3)^(0+128),w
  2439     014C  0020               	movlb	0	; select bank0
  2440     014D  00DC               	movwf	___fladd@b+3
  2441     014E  0021               	movlb	1	; select bank1
  2442     014F  082E               	movf	(_upd_PWM$1280+2)^(0+128),w
  2443     0150  0020               	movlb	0	; select bank0
  2444     0151  00DB               	movwf	___fladd@b+2
  2445     0152  0021               	movlb	1	; select bank1
  2446     0153  082D               	movf	(_upd_PWM$1280+1)^(0+128),w
  2447     0154  0020               	movlb	0	; select bank0
  2448     0155  00DA               	movwf	___fladd@b+1
  2449     0156  0021               	movlb	1	; select bank1
  2450     0157  082C               	movf	_upd_PWM$1280^(0+128),w
  2451     0158  0020               	movlb	0	; select bank0
  2452     0159  00D9               	movwf	___fladd@b
  2453     015A  0021               	movlb	1	; select bank1
  2454     015B  0848               	movf	(_cum_err+3)^(0+128),w
  2455     015C  0020               	movlb	0	; select bank0
  2456     015D  00E0               	movwf	___fladd@a+3
  2457     015E  0021               	movlb	1	; select bank1
  2458     015F  0847               	movf	(_cum_err+2)^(0+128),w
  2459     0160  0020               	movlb	0	; select bank0
  2460     0161  00DF               	movwf	___fladd@a+2
  2461     0162  0021               	movlb	1	; select bank1
  2462     0163  0846               	movf	(_cum_err+1)^(0+128),w
  2463     0164  0020               	movlb	0	; select bank0
  2464     0165  00DE               	movwf	___fladd@a+1
  2465     0166  0021               	movlb	1	; select bank1
  2466     0167  0845               	movf	_cum_err^(0+128),w
  2467     0168  0020               	movlb	0	; select bank0
  2468     0169  00DD               	movwf	___fladd@a
  2469     016A  3184  24F8  3180   	fcall	___fladd
  2470     016D  0020               	movlb	0	; select bank0
  2471     016E  085C               	movf	?___fladd+3,w
  2472     016F  0021               	movlb	1	; select bank1
  2473     0170  00C8               	movwf	(_cum_err+3)^(0+128)
  2474     0171  0020               	movlb	0	; select bank0
  2475     0172  085B               	movf	?___fladd+2,w
  2476     0173  0021               	movlb	1	; select bank1
  2477     0174  00C7               	movwf	(_cum_err+2)^(0+128)
  2478     0175  0020               	movlb	0	; select bank0
  2479     0176  085A               	movf	?___fladd+1,w
  2480     0177  0021               	movlb	1	; select bank1
  2481     0178  00C6               	movwf	(_cum_err+1)^(0+128)
  2482     0179  0020               	movlb	0	; select bank0
  2483     017A  0859               	movf	?___fladd,w
  2484     017B  0021               	movlb	1	; select bank1
  2485     017C  00C5               	movwf	_cum_err^(0+128)
  2486                           
  2487                           ;main.c: 200:     if (cum_err > cum_err_max) {
  2488     017D  3040               	movlw	64
  2489     017E  00A3               	movwf	(___flge@ff1+3)^(0+128)
  2490     017F  30A0               	movlw	160
  2491     0180  00A2               	movwf	(___flge@ff1+2)^(0+128)
  2492     0181  3000               	movlw	0
  2493     0182  00A1               	movwf	(___flge@ff1+1)^(0+128)
  2494     0183  3000               	movlw	0
  2495     0184  00A0               	movwf	___flge@ff1^(0+128)
  2496     0185  0848               	movf	(_cum_err+3)^(0+128),w
  2497     0186  00A7               	movwf	(___flge@ff2+3)^(0+128)
  2498     0187  0847               	movf	(_cum_err+2)^(0+128),w
  2499     0188  00A6               	movwf	(___flge@ff2+2)^(0+128)
  2500     0189  0846               	movf	(_cum_err+1)^(0+128),w
  2501     018A  00A5               	movwf	(___flge@ff2+1)^(0+128)
  2502     018B  0845               	movf	_cum_err^(0+128),w
  2503     018C  00A4               	movwf	___flge@ff2^(0+128)
  2504     018D  318B  23E8  3180   	fcall	___flge
  2505     0190  1803               	btfsc	3,0
  2506     0191  2993               	goto	u4161
  2507     0192  2994               	goto	u4160
  2508     0193                     u4161:
  2509     0193  299D               	goto	l3042
  2510     0194                     u4160:
  2511     0194                     l3040:
  2512                           
  2513                           ;main.c: 201:         cum_err = cum_err_max;
  2514     0194  3040               	movlw	64
  2515     0195  0021               	movlb	1	; select bank1
  2516     0196  00C8               	movwf	(_cum_err+3)^(0+128)
  2517     0197  30A0               	movlw	160
  2518     0198  00C7               	movwf	(_cum_err+2)^(0+128)
  2519     0199  3000               	movlw	0
  2520     019A  00C6               	movwf	(_cum_err+1)^(0+128)
  2521     019B  3000               	movlw	0
  2522     019C  00C5               	movwf	_cum_err^(0+128)
  2523     019D                     l3042:
  2524                           
  2525                           ;main.c: 204:     if ((cur_PWM + 0.4*err + 0.025*cum_err) < 0) {
  2526     019D  0021               	movlb	1	; select bank1
  2527     019E  0833               	movf	(upd_PWM@err+3)^(0+128),w
  2528     019F  0020               	movlb	0	; select bank0
  2529     01A0  00AC               	movwf	___flmul@a+3
  2530     01A1  0021               	movlb	1	; select bank1
  2531     01A2  0832               	movf	(upd_PWM@err+2)^(0+128),w
  2532     01A3  0020               	movlb	0	; select bank0
  2533     01A4  00AB               	movwf	___flmul@a+2
  2534     01A5  0021               	movlb	1	; select bank1
  2535     01A6  0831               	movf	(upd_PWM@err+1)^(0+128),w
  2536     01A7  0020               	movlb	0	; select bank0
  2537     01A8  00AA               	movwf	___flmul@a+1
  2538     01A9  0021               	movlb	1	; select bank1
  2539     01AA  0830               	movf	upd_PWM@err^(0+128),w
  2540     01AB  0020               	movlb	0	; select bank0
  2541     01AC  00A9               	movwf	___flmul@a
  2542     01AD  303E               	movlw	62
  2543     01AE  00A8               	movwf	___flmul@b+3
  2544     01AF  30CC               	movlw	204
  2545     01B0  00A7               	movwf	___flmul@b+2
  2546     01B1  30CC               	movlw	204
  2547     01B2  00A6               	movwf	___flmul@b+1
  2548     01B3  30CD               	movlw	205
  2549     01B4  00A5               	movwf	___flmul@b
  2550     01B5  3182  22BD  3180   	fcall	___flmul
  2551     01B8  0020               	movlb	0	; select bank0
  2552     01B9  0828               	movf	?___flmul+3,w
  2553     01BA  00DC               	movwf	___fladd@b+3
  2554     01BB  0827               	movf	?___flmul+2,w
  2555     01BC  00DB               	movwf	___fladd@b+2
  2556     01BD  0826               	movf	?___flmul+1,w
  2557     01BE  00DA               	movwf	___fladd@b+1
  2558     01BF  0825               	movf	?___flmul,w
  2559     01C0  00D9               	movwf	___fladd@b
  2560     01C1  0021               	movlb	1	; select bank1
  2561     01C2  084F               	movf	_cur_PWM^(0+128),w
  2562     01C3  00F2               	movwf	___xxtofl@val
  2563     01C4  0850               	movf	(_cur_PWM+1)^(0+128),w
  2564     01C5  00F3               	movwf	___xxtofl@val+1
  2565     01C6  01F4               	clrf	___xxtofl@val+2
  2566     01C7  01F5               	clrf	___xxtofl@val+3
  2567     01C8  3000               	movlw	0
  2568     01C9  318D  25AB  3180   	fcall	___xxtofl
  2569     01CC  0875               	movf	?___xxtofl+3,w
  2570     01CD  0020               	movlb	0	; select bank0
  2571     01CE  00E0               	movwf	___fladd@a+3
  2572     01CF  0874               	movf	?___xxtofl+2,w
  2573     01D0  00DF               	movwf	___fladd@a+2
  2574     01D1  0873               	movf	?___xxtofl+1,w
  2575     01D2  00DE               	movwf	___fladd@a+1
  2576     01D3  0872               	movf	?___xxtofl,w
  2577     01D4  00DD               	movwf	___fladd@a
  2578     01D5  3184  24F8  3180   	fcall	___fladd
  2579     01D8  0020               	movlb	0	; select bank0
  2580     01D9  085C               	movf	?___fladd+3,w
  2581     01DA  0021               	movlb	1	; select bank1
  2582     01DB  00AF               	movwf	(_upd_PWM$1280+3)^(0+128)
  2583     01DC  0020               	movlb	0	; select bank0
  2584     01DD  085B               	movf	?___fladd+2,w
  2585     01DE  0021               	movlb	1	; select bank1
  2586     01DF  00AE               	movwf	(_upd_PWM$1280+2)^(0+128)
  2587     01E0  0020               	movlb	0	; select bank0
  2588     01E1  085A               	movf	?___fladd+1,w
  2589     01E2  0021               	movlb	1	; select bank1
  2590     01E3  00AD               	movwf	(_upd_PWM$1280+1)^(0+128)
  2591     01E4  0020               	movlb	0	; select bank0
  2592     01E5  0859               	movf	?___fladd,w
  2593     01E6  0021               	movlb	1	; select bank1
  2594     01E7  00AC               	movwf	_upd_PWM$1280^(0+128)
  2595     01E8                     l3044:
  2596                           
  2597                           ;main.c: 204:     if ((cur_PWM + 0.4*err + 0.025*cum_err) < 0) {
  2598     01E8  303C               	movlw	60
  2599     01E9  0020               	movlb	0	; select bank0
  2600     01EA  00A8               	movwf	___flmul@b+3
  2601     01EB  30CC               	movlw	204
  2602     01EC  00A7               	movwf	___flmul@b+2
  2603     01ED  30CC               	movlw	204
  2604     01EE  00A6               	movwf	___flmul@b+1
  2605     01EF  30CD               	movlw	205
  2606     01F0  00A5               	movwf	___flmul@b
  2607     01F1  0021               	movlb	1	; select bank1
  2608     01F2  0848               	movf	(_cum_err+3)^(0+128),w
  2609     01F3  0020               	movlb	0	; select bank0
  2610     01F4  00AC               	movwf	___flmul@a+3
  2611     01F5  0021               	movlb	1	; select bank1
  2612     01F6  0847               	movf	(_cum_err+2)^(0+128),w
  2613     01F7  0020               	movlb	0	; select bank0
  2614     01F8  00AB               	movwf	___flmul@a+2
  2615     01F9  0021               	movlb	1	; select bank1
  2616     01FA  0846               	movf	(_cum_err+1)^(0+128),w
  2617     01FB  0020               	movlb	0	; select bank0
  2618     01FC  00AA               	movwf	___flmul@a+1
  2619     01FD  0021               	movlb	1	; select bank1
  2620     01FE  0845               	movf	_cum_err^(0+128),w
  2621     01FF  0020               	movlb	0	; select bank0
  2622     0200  00A9               	movwf	___flmul@a
  2623     0201  3182  22BD  3180   	fcall	___flmul
  2624     0204  0020               	movlb	0	; select bank0
  2625     0205  0828               	movf	?___flmul+3,w
  2626     0206  00DC               	movwf	___fladd@b+3
  2627     0207  0827               	movf	?___flmul+2,w
  2628     0208  00DB               	movwf	___fladd@b+2
  2629     0209  0826               	movf	?___flmul+1,w
  2630     020A  00DA               	movwf	___fladd@b+1
  2631     020B  0825               	movf	?___flmul,w
  2632     020C  00D9               	movwf	___fladd@b
  2633     020D  0021               	movlb	1	; select bank1
  2634     020E  082F               	movf	(_upd_PWM$1280+3)^(0+128),w
  2635     020F  0020               	movlb	0	; select bank0
  2636     0210  00E0               	movwf	___fladd@a+3
  2637     0211  0021               	movlb	1	; select bank1
  2638     0212  082E               	movf	(_upd_PWM$1280+2)^(0+128),w
  2639     0213  0020               	movlb	0	; select bank0
  2640     0214  00DF               	movwf	___fladd@a+2
  2641     0215  0021               	movlb	1	; select bank1
  2642     0216  082D               	movf	(_upd_PWM$1280+1)^(0+128),w
  2643     0217  0020               	movlb	0	; select bank0
  2644     0218  00DE               	movwf	___fladd@a+1
  2645     0219  0021               	movlb	1	; select bank1
  2646     021A  082C               	movf	_upd_PWM$1280^(0+128),w
  2647     021B  0020               	movlb	0	; select bank0
  2648     021C  00DD               	movwf	___fladd@a
  2649     021D  3184  24F8  3180   	fcall	___fladd
  2650     0220  0020               	movlb	0	; select bank0
  2651     0221  085C               	movf	?___fladd+3,w
  2652     0222  0021               	movlb	1	; select bank1
  2653     0223  00A3               	movwf	(___flge@ff1+3)^(0+128)
  2654     0224  0020               	movlb	0	; select bank0
  2655     0225  085B               	movf	?___fladd+2,w
  2656     0226  0021               	movlb	1	; select bank1
  2657     0227  00A2               	movwf	(___flge@ff1+2)^(0+128)
  2658     0228  0020               	movlb	0	; select bank0
  2659     0229  085A               	movf	?___fladd+1,w
  2660     022A  0021               	movlb	1	; select bank1
  2661     022B  00A1               	movwf	(___flge@ff1+1)^(0+128)
  2662     022C  0020               	movlb	0	; select bank0
  2663     022D  0859               	movf	?___fladd,w
  2664     022E  0021               	movlb	1	; select bank1
  2665     022F  00A0               	movwf	___flge@ff1^(0+128)
  2666     0230  3000               	movlw	0
  2667     0231  00A7               	movwf	(___flge@ff2+3)^(0+128)
  2668     0232  3000               	movlw	0
  2669     0233  00A6               	movwf	(___flge@ff2+2)^(0+128)
  2670     0234  3000               	movlw	0
  2671     0235  00A5               	movwf	(___flge@ff2+1)^(0+128)
  2672     0236  3000               	movlw	0
  2673     0237  00A4               	movwf	___flge@ff2^(0+128)
  2674     0238  318B  23E8  3180   	fcall	___flge
  2675     023B  1803               	btfsc	3,0
  2676     023C  2A3E               	goto	u4171
  2677     023D  2A3F               	goto	u4170
  2678     023E                     u4171:
  2679     023E  2A43               	goto	l3048
  2680     023F                     u4170:
  2681     023F                     l3046:
  2682                           
  2683                           ;main.c: 205:         cur_PWM = 0;
  2684     023F  0021               	movlb	1	; select bank1
  2685     0240  01CF               	clrf	_cur_PWM^(0+128)
  2686     0241  01D0               	clrf	(_cur_PWM+1)^(0+128)
  2687                           
  2688                           ;main.c: 206:     } else {
  2689     0242  2AA6               	goto	l3050
  2690     0243                     l3048:
  2691                           
  2692                           ;main.c: 207:         cur_PWM += 0.4*err + 0.025*cum_err;
  2693     0243  0021               	movlb	1	; select bank1
  2694     0244  0833               	movf	(upd_PWM@err+3)^(0+128),w
  2695     0245  0020               	movlb	0	; select bank0
  2696     0246  00AC               	movwf	___flmul@a+3
  2697     0247  0021               	movlb	1	; select bank1
  2698     0248  0832               	movf	(upd_PWM@err+2)^(0+128),w
  2699     0249  0020               	movlb	0	; select bank0
  2700     024A  00AB               	movwf	___flmul@a+2
  2701     024B  0021               	movlb	1	; select bank1
  2702     024C  0831               	movf	(upd_PWM@err+1)^(0+128),w
  2703     024D  0020               	movlb	0	; select bank0
  2704     024E  00AA               	movwf	___flmul@a+1
  2705     024F  0021               	movlb	1	; select bank1
  2706     0250  0830               	movf	upd_PWM@err^(0+128),w
  2707     0251  0020               	movlb	0	; select bank0
  2708     0252  00A9               	movwf	___flmul@a
  2709     0253  303E               	movlw	62
  2710     0254  00A8               	movwf	___flmul@b+3
  2711     0255  30CC               	movlw	204
  2712     0256  00A7               	movwf	___flmul@b+2
  2713     0257  30CC               	movlw	204
  2714     0258  00A6               	movwf	___flmul@b+1
  2715     0259  30CD               	movlw	205
  2716     025A  00A5               	movwf	___flmul@b
  2717     025B  3182  22BD  3180   	fcall	___flmul
  2718     025E  0020               	movlb	0	; select bank0
  2719     025F  0828               	movf	?___flmul+3,w
  2720     0260  00E0               	movwf	___fladd@a+3
  2721     0261  0827               	movf	?___flmul+2,w
  2722     0262  00DF               	movwf	___fladd@a+2
  2723     0263  0826               	movf	?___flmul+1,w
  2724     0264  00DE               	movwf	___fladd@a+1
  2725     0265  0825               	movf	?___flmul,w
  2726     0266  00DD               	movwf	___fladd@a
  2727     0267  0021               	movlb	1	; select bank1
  2728     0268  0848               	movf	(_cum_err+3)^(0+128),w
  2729     0269  0020               	movlb	0	; select bank0
  2730     026A  00AC               	movwf	___flmul@a+3
  2731     026B  0021               	movlb	1	; select bank1
  2732     026C  0847               	movf	(_cum_err+2)^(0+128),w
  2733     026D  0020               	movlb	0	; select bank0
  2734     026E  00AB               	movwf	___flmul@a+2
  2735     026F  0021               	movlb	1	; select bank1
  2736     0270  0846               	movf	(_cum_err+1)^(0+128),w
  2737     0271  0020               	movlb	0	; select bank0
  2738     0272  00AA               	movwf	___flmul@a+1
  2739     0273  0021               	movlb	1	; select bank1
  2740     0274  0845               	movf	_cum_err^(0+128),w
  2741     0275  0020               	movlb	0	; select bank0
  2742     0276  00A9               	movwf	___flmul@a
  2743     0277  303C               	movlw	60
  2744     0278  00A8               	movwf	___flmul@b+3
  2745     0279  30CC               	movlw	204
  2746     027A  00A7               	movwf	___flmul@b+2
  2747     027B  30CC               	movlw	204
  2748     027C  00A6               	movwf	___flmul@b+1
  2749     027D  30CD               	movlw	205
  2750     027E  00A5               	movwf	___flmul@b
  2751     027F  3182  22BD  3180   	fcall	___flmul
  2752     0282  0020               	movlb	0	; select bank0
  2753     0283  0828               	movf	?___flmul+3,w
  2754     0284  00DC               	movwf	___fladd@b+3
  2755     0285  0827               	movf	?___flmul+2,w
  2756     0286  00DB               	movwf	___fladd@b+2
  2757     0287  0826               	movf	?___flmul+1,w
  2758     0288  00DA               	movwf	___fladd@b+1
  2759     0289  0825               	movf	?___flmul,w
  2760     028A  00D9               	movwf	___fladd@b
  2761     028B  3184  24F8  3180   	fcall	___fladd
  2762     028E  0020               	movlb	0	; select bank0
  2763     028F  085C               	movf	?___fladd+3,w
  2764     0290  0021               	movlb	1	; select bank1
  2765     0291  00A3               	movwf	(___fltol@f1+3)^(0+128)
  2766     0292  0020               	movlb	0	; select bank0
  2767     0293  085B               	movf	?___fladd+2,w
  2768     0294  0021               	movlb	1	; select bank1
  2769     0295  00A2               	movwf	(___fltol@f1+2)^(0+128)
  2770     0296  0020               	movlb	0	; select bank0
  2771     0297  085A               	movf	?___fladd+1,w
  2772     0298  0021               	movlb	1	; select bank1
  2773     0299  00A1               	movwf	(___fltol@f1+1)^(0+128)
  2774     029A  0020               	movlb	0	; select bank0
  2775     029B  0859               	movf	?___fladd,w
  2776     029C  0021               	movlb	1	; select bank1
  2777     029D  00A0               	movwf	___fltol@f1^(0+128)
  2778     029E  318B  236C  3180   	fcall	___fltol
  2779     02A1  0021               	movlb	1	; select bank1
  2780     02A2  0820               	movf	?___fltol^(0+128),w
  2781     02A3  07CF               	addwf	_cur_PWM^(0+128),f
  2782     02A4  0821               	movf	(?___fltol+1)^(0+128),w
  2783     02A5  3DD0               	addwfc	(_cur_PWM+1)^(0+128),f
  2784     02A6                     l3050:
  2785                           
  2786                           ;main.c: 210:     if (cur_PWM > PWM_max) {
  2787     02A6  0850               	movf	(_cur_PWM+1)^(0+128),w
  2788     02A7  024E               	subwf	(_PWM_max+1)^(0+128),w
  2789     02A8  1D03               	skipz
  2790     02A9  2AAC               	goto	u4185
  2791     02AA  084F               	movf	_cur_PWM^(0+128),w
  2792     02AB  024D               	subwf	_PWM_max^(0+128),w
  2793     02AC                     u4185:
  2794     02AC  1803               	skipnc
  2795     02AD  2AAF               	goto	u4181
  2796     02AE  2AB0               	goto	u4180
  2797     02AF                     u4181:
  2798     02AF  2AB4               	goto	l171
  2799     02B0                     u4180:
  2800     02B0                     l3052:
  2801                           
  2802                           ;main.c: 211:         cur_PWM = PWM_max;
  2803     02B0  084E               	movf	(_PWM_max+1)^(0+128),w
  2804     02B1  00D0               	movwf	(_cur_PWM+1)^(0+128)
  2805     02B2  084D               	movf	_PWM_max^(0+128),w
  2806     02B3  00CF               	movwf	_cur_PWM^(0+128)
  2807     02B4                     l171:	
  2808                           ;main.c: 212:     }
  2809                           
  2810                           
  2811                           ;main.c: 214:     prev_err = err;
  2812     02B4  0833               	movf	(upd_PWM@err+3)^(0+128),w
  2813     02B5  00C4               	movwf	(_prev_err+3)^(0+128)
  2814     02B6  0832               	movf	(upd_PWM@err+2)^(0+128),w
  2815     02B7  00C3               	movwf	(_prev_err+2)^(0+128)
  2816     02B8  0831               	movf	(upd_PWM@err+1)^(0+128),w
  2817     02B9  00C2               	movwf	(_prev_err+1)^(0+128)
  2818     02BA  0830               	movf	upd_PWM@err^(0+128),w
  2819     02BB  00C1               	movwf	_prev_err^(0+128)
  2820     02BC                     l172:
  2821     02BC  0008               	return
  2822     02BD                     __end_of_upd_PWM:
  2823                           
  2824                           	psect	text5
  2825     0B6C                     __ptext5:	
  2826 ;; *************** function ___fltol *****************
  2827 ;; Defined at:
  2828 ;;		line 43 in file "C:\Program Files\Microchip\xc8\v2.46\pic\sources\c99\common\fltol.c"
  2829 ;; Parameters:    Size  Location     Type
  2830 ;;  f1              4    0[BANK1 ] void 
  2831 ;; Auto vars:     Size  Location     Type
  2832 ;;  exp1            1   78[BANK0 ] unsigned char 
  2833 ;;  sign1           1   77[BANK0 ] unsigned char 
  2834 ;; Return value:  Size  Location     Type
  2835 ;;                  4    0[BANK1 ] long 
  2836 ;; Registers used:
  2837 ;;		wreg, status,2, status,0
  2838 ;; Tracked objects:
  2839 ;;		On entry : 0/0
  2840 ;;		On exit  : 0/0
  2841 ;;		Unchanged: 0/0
  2842 ;; Data sizes:     COMMON   BANK0   BANK1   BANK2   BANK3   BANK4   BANK5   BANK6
  2843 ;;      Params:         0       0       4       0       0       0       0       0
  2844 ;;      Locals:         0       2       0       0       0       0       0       0
  2845 ;;      Temps:          0       0       4       0       0       0       0       0
  2846 ;;      Totals:         0       2       8       0       0       0       0       0
  2847 ;;Total ram usage:       10 bytes
  2848 ;; Hardware stack levels used: 1
  2849 ;; Hardware stack levels required when called: 3
  2850 ;; This function calls:
  2851 ;;		Nothing
  2852 ;; This function is called by:
  2853 ;;		_upd_disp
  2854 ;;		_upd_PWM
  2855 ;; This function uses a non-reentrant model
  2856 ;;
  2857                           
  2858     0B6C                     ___fltol:	
  2859                           ;psect for function ___fltol
  2860                           
  2861     0B6C                     l2804:	
  2862                           ;incstack = 0
  2863                           ; Regs used in ___fltol: [wreg+status,2+status,0]
  2864                           
  2865     0B6C  1003               	clrc
  2866     0B6D  0021               	movlb	1	; select bank1
  2867     0B6E  0D22               	rlf	(___fltol@f1+2)^(0+128),w
  2868     0B6F  0D23               	rlf	(___fltol@f1+3)^(0+128),w
  2869     0B70  0020               	movlb	0	; select bank0
  2870     0B71  00EE               	movwf	___fltol@exp1
  2871     0B72  086E               	movf	___fltol@exp1,w
  2872     0B73  1D03               	btfss	3,2
  2873     0B74  2B76               	goto	u3721
  2874     0B75  2B77               	goto	u3720
  2875     0B76                     u3721:
  2876     0B76  2B81               	goto	l2810
  2877     0B77                     u3720:
  2878     0B77                     l2806:
  2879     0B77  3000               	movlw	0
  2880     0B78  0021               	movlb	1	; select bank1
  2881     0B79  00A3               	movwf	(?___fltol+3)^(0+128)
  2882     0B7A  3000               	movlw	0
  2883     0B7B  00A2               	movwf	(?___fltol+2)^(0+128)
  2884     0B7C  3000               	movlw	0
  2885     0B7D  00A1               	movwf	(?___fltol+1)^(0+128)
  2886     0B7E  3000               	movlw	0
  2887     0B7F  00A0               	movwf	?___fltol^(0+128)
  2888     0B80  2BE7               	goto	l546
  2889     0B81                     l2810:
  2890     0B81  0021               	movlb	1	; select bank1
  2891     0B82  0820               	movf	___fltol@f1^(0+128),w
  2892     0B83  00A4               	movwf	??___fltol^(0+128)
  2893     0B84  0821               	movf	(___fltol@f1+1)^(0+128),w
  2894     0B85  00A5               	movwf	(??___fltol^(0+128)+1)
  2895     0B86  0822               	movf	(___fltol@f1+2)^(0+128),w
  2896     0B87  00A6               	movwf	(??___fltol^(0+128)+2)
  2897     0B88  0823               	movf	(___fltol@f1+3)^(0+128),w
  2898     0B89  00A7               	movwf	(??___fltol^(0+128)+3)
  2899     0B8A  301F               	movlw	31
  2900     0B8B                     u3735:
  2901     0B8B  36A7               	lsrf	(??___fltol^(0+128)+3),f
  2902     0B8C  0CA6               	rrf	(??___fltol^(0+128)+2),f
  2903     0B8D  0CA5               	rrf	(??___fltol^(0+128)+1),f
  2904     0B8E  0CA4               	rrf	??___fltol^(0+128),f
  2905     0B8F                     u3730:
  2906     0B8F  0B89               	decfsz	9,f
  2907     0B90  2B8B               	goto	u3735
  2908     0B91  0824               	movf	??___fltol^(0+128),w
  2909     0B92  0020               	movlb	0	; select bank0
  2910     0B93  00ED               	movwf	___fltol@sign1
  2911     0B94                     l2812:
  2912     0B94  0021               	movlb	1	; select bank1
  2913     0B95  17A2               	bsf	(___fltol@f1^(0+128)+2),7
  2914     0B96                     l2814:
  2915     0B96  30FF               	movlw	255
  2916     0B97  05A0               	andwf	___fltol@f1^(0+128),f
  2917     0B98  30FF               	movlw	255
  2918     0B99  05A1               	andwf	(___fltol@f1+1)^(0+128),f
  2919     0B9A  30FF               	movlw	255
  2920     0B9B  05A2               	andwf	(___fltol@f1+2)^(0+128),f
  2921     0B9C  3000               	movlw	0
  2922     0B9D  05A3               	andwf	(___fltol@f1+3)^(0+128),f
  2923     0B9E                     l2816:
  2924     0B9E  3096               	movlw	150
  2925     0B9F  0020               	movlb	0	; select bank0
  2926     0BA0  02EE               	subwf	___fltol@exp1,f
  2927     0BA1                     l2818:
  2928     0BA1  1FEE               	btfss	___fltol@exp1,7
  2929     0BA2  2BA4               	goto	u3741
  2930     0BA3  2BA5               	goto	u3740
  2931     0BA4                     u3741:
  2932     0BA4  2BBF               	goto	l2828
  2933     0BA5                     u3740:
  2934     0BA5                     l2820:
  2935     0BA5  086E               	movf	___fltol@exp1,w
  2936     0BA6  3A80               	xorlw	128
  2937     0BA7  3E97               	addlw	151
  2938     0BA8  1803               	skipnc
  2939     0BA9  2BAB               	goto	u3751
  2940     0BAA  2BAC               	goto	u3750
  2941     0BAB                     u3751:
  2942     0BAB  2BAD               	goto	l2826
  2943     0BAC                     u3750:
  2944     0BAC  2B77               	goto	l2806
  2945     0BAD                     l2826:
  2946     0BAD  3001               	movlw	1
  2947     0BAE                     u3765:
  2948     0BAE  0021               	movlb	1	; select bank1
  2949     0BAF  36A3               	lsrf	(___fltol@f1+3)^(0+128),f
  2950     0BB0  0CA2               	rrf	(___fltol@f1+2)^(0+128),f
  2951     0BB1  0CA1               	rrf	(___fltol@f1+1)^(0+128),f
  2952     0BB2  0CA0               	rrf	___fltol@f1^(0+128),f
  2953     0BB3  0B89               	decfsz	9,f
  2954     0BB4  2BAE               	goto	u3765
  2955     0BB5  3001               	movlw	1
  2956     0BB6  00A4               	movwf	??___fltol^(0+128)
  2957     0BB7  0824               	movf	??___fltol^(0+128),w
  2958     0BB8  0020               	movlb	0	; select bank0
  2959     0BB9  07EE               	addwf	___fltol@exp1,f
  2960     0BBA  1D03               	btfss	3,2
  2961     0BBB  2BBD               	goto	u3771
  2962     0BBC  2BBE               	goto	u3770
  2963     0BBD                     u3771:
  2964     0BBD  2BAD               	goto	l2826
  2965     0BBE                     u3770:
  2966     0BBE  2BD6               	goto	l2836
  2967     0BBF                     l2828:
  2968     0BBF  3020               	movlw	32
  2969     0BC0  026E               	subwf	___fltol@exp1,w
  2970     0BC1  1C03               	skipc
  2971     0BC2  2BC4               	goto	u3781
  2972     0BC3  2BC5               	goto	u3780
  2973     0BC4                     u3781:
  2974     0BC4  2BD1               	goto	l553
  2975     0BC5                     u3780:
  2976     0BC5  2B77               	goto	l2806
  2977     0BC6                     l2834:
  2978     0BC6  3001               	movlw	1
  2979     0BC7                     u3795:
  2980     0BC7  0021               	movlb	1	; select bank1
  2981     0BC8  35A0               	lslf	___fltol@f1^(0+128),f
  2982     0BC9  0DA1               	rlf	(___fltol@f1+1)^(0+128),f
  2983     0BCA  0DA2               	rlf	(___fltol@f1+2)^(0+128),f
  2984     0BCB  0DA3               	rlf	(___fltol@f1+3)^(0+128),f
  2985     0BCC  0B89               	decfsz	9,f
  2986     0BCD  2BC7               	goto	u3795
  2987     0BCE  3001               	movlw	1
  2988     0BCF  0020               	movlb	0	; select bank0
  2989     0BD0  02EE               	subwf	___fltol@exp1,f
  2990     0BD1                     l553:
  2991     0BD1  086E               	movf	___fltol@exp1,w
  2992     0BD2  1D03               	btfss	3,2
  2993     0BD3  2BD5               	goto	u3801
  2994     0BD4  2BD6               	goto	u3800
  2995     0BD5                     u3801:
  2996     0BD5  2BC6               	goto	l2834
  2997     0BD6                     u3800:
  2998     0BD6                     l2836:
  2999     0BD6  086D               	movf	___fltol@sign1,w
  3000     0BD7  1903               	btfsc	3,2
  3001     0BD8  2BDA               	goto	u3811
  3002     0BD9  2BDB               	goto	u3810
  3003     0BDA                     u3811:
  3004     0BDA  2BE7               	goto	l556
  3005     0BDB                     u3810:
  3006     0BDB                     l2838:
  3007     0BDB  0021               	movlb	1	; select bank1
  3008     0BDC  09A0               	comf	___fltol@f1^(0+128),f
  3009     0BDD  09A1               	comf	(___fltol@f1+1)^(0+128),f
  3010     0BDE  09A2               	comf	(___fltol@f1+2)^(0+128),f
  3011     0BDF  09A3               	comf	(___fltol@f1+3)^(0+128),f
  3012     0BE0  0AA0               	incf	___fltol@f1^(0+128),f
  3013     0BE1  1903               	skipnz
  3014     0BE2  0AA1               	incf	(___fltol@f1+1)^(0+128),f
  3015     0BE3  1903               	skipnz
  3016     0BE4  0AA2               	incf	(___fltol@f1+2)^(0+128),f
  3017     0BE5  1903               	skipnz
  3018     0BE6  0AA3               	incf	(___fltol@f1+3)^(0+128),f
  3019     0BE7                     l556:
  3020     0BE7                     l546:
  3021     0BE7  0008               	return
  3022     0BE8                     __end_of___fltol:
  3023                           
  3024                           	psect	text6
  3025     0A08                     __ptext6:	
  3026 ;; *************** function ___flsub *****************
  3027 ;; Defined at:
  3028 ;;		line 242 in file "C:\Program Files\Microchip\xc8\v2.46\pic\sources\c99\common\sprcadd.c"
  3029 ;; Parameters:    Size  Location     Type
  3030 ;;  a               4    0[BANK1 ] long 
  3031 ;;  b               4    4[BANK1 ] long 
  3032 ;; Auto vars:     Size  Location     Type
  3033 ;;		None
  3034 ;; Return value:  Size  Location     Type
  3035 ;;                  4    0[BANK1 ] long 
  3036 ;; Registers used:
  3037 ;;		wreg, status,2, status,0, pclath, cstack
  3038 ;; Tracked objects:
  3039 ;;		On entry : 0/0
  3040 ;;		On exit  : 0/0
  3041 ;;		Unchanged: 0/0
  3042 ;; Data sizes:     COMMON   BANK0   BANK1   BANK2   BANK3   BANK4   BANK5   BANK6
  3043 ;;      Params:         0       0       8       0       0       0       0       0
  3044 ;;      Locals:         0       0       0       0       0       0       0       0
  3045 ;;      Temps:          0       0       0       0       0       0       0       0
  3046 ;;      Totals:         0       0       8       0       0       0       0       0
  3047 ;;Total ram usage:        8 bytes
  3048 ;; Hardware stack levels used: 1
  3049 ;; Hardware stack levels required when called: 4
  3050 ;; This function calls:
  3051 ;;		___fladd
  3052 ;; This function is called by:
  3053 ;;		_upd_PWM
  3054 ;; This function uses a non-reentrant model
  3055 ;;
  3056                           
  3057     0A08                     ___flsub:	
  3058                           ;psect for function ___flsub
  3059                           
  3060     0A08                     l2840:	
  3061                           ;incstack = 0
  3062                           ; Regs used in ___flsub: [wreg+status,2+status,0+pclath+cstack]
  3063                           
  3064     0A08  3080               	movlw	128
  3065     0A09  0021               	movlb	1	; select bank1
  3066     0A0A  06A3               	xorwf	(___flsub@a+3)^(0+128),f
  3067     0A0B                     l2842:
  3068     0A0B  0827               	movf	(___flsub@b+3)^(0+128),w
  3069     0A0C  0020               	movlb	0	; select bank0
  3070     0A0D  00DC               	movwf	___fladd@b+3
  3071     0A0E  0021               	movlb	1	; select bank1
  3072     0A0F  0826               	movf	(___flsub@b+2)^(0+128),w
  3073     0A10  0020               	movlb	0	; select bank0
  3074     0A11  00DB               	movwf	___fladd@b+2
  3075     0A12  0021               	movlb	1	; select bank1
  3076     0A13  0825               	movf	(___flsub@b+1)^(0+128),w
  3077     0A14  0020               	movlb	0	; select bank0
  3078     0A15  00DA               	movwf	___fladd@b+1
  3079     0A16  0021               	movlb	1	; select bank1
  3080     0A17  0824               	movf	___flsub@b^(0+128),w
  3081     0A18  0020               	movlb	0	; select bank0
  3082     0A19  00D9               	movwf	___fladd@b
  3083     0A1A  0021               	movlb	1	; select bank1
  3084     0A1B  0823               	movf	(___flsub@a+3)^(0+128),w
  3085     0A1C  0020               	movlb	0	; select bank0
  3086     0A1D  00E0               	movwf	___fladd@a+3
  3087     0A1E  0021               	movlb	1	; select bank1
  3088     0A1F  0822               	movf	(___flsub@a+2)^(0+128),w
  3089     0A20  0020               	movlb	0	; select bank0
  3090     0A21  00DF               	movwf	___fladd@a+2
  3091     0A22  0021               	movlb	1	; select bank1
  3092     0A23  0821               	movf	(___flsub@a+1)^(0+128),w
  3093     0A24  0020               	movlb	0	; select bank0
  3094     0A25  00DE               	movwf	___fladd@a+1
  3095     0A26  0021               	movlb	1	; select bank1
  3096     0A27  0820               	movf	___flsub@a^(0+128),w
  3097     0A28  0020               	movlb	0	; select bank0
  3098     0A29  00DD               	movwf	___fladd@a
  3099     0A2A  3184  24F8  318A   	fcall	___fladd
  3100     0A2D  0020               	movlb	0	; select bank0
  3101     0A2E  085C               	movf	?___fladd+3,w
  3102     0A2F  0021               	movlb	1	; select bank1
  3103     0A30  00A3               	movwf	(?___flsub+3)^(0+128)
  3104     0A31  0020               	movlb	0	; select bank0
  3105     0A32  085B               	movf	?___fladd+2,w
  3106     0A33  0021               	movlb	1	; select bank1
  3107     0A34  00A2               	movwf	(?___flsub+2)^(0+128)
  3108     0A35  0020               	movlb	0	; select bank0
  3109     0A36  085A               	movf	?___fladd+1,w
  3110     0A37  0021               	movlb	1	; select bank1
  3111     0A38  00A1               	movwf	(?___flsub+1)^(0+128)
  3112     0A39  0020               	movlb	0	; select bank0
  3113     0A3A  0859               	movf	?___fladd,w
  3114     0A3B  0021               	movlb	1	; select bank1
  3115     0A3C  00A0               	movwf	?___flsub^(0+128)
  3116     0A3D                     l699:
  3117     0A3D  0008               	return
  3118     0A3E                     __end_of___flsub:
  3119                           
  3120                           	psect	text7
  3121     02BD                     __ptext7:	
  3122 ;; *************** function ___flmul *****************
  3123 ;; Defined at:
  3124 ;;		line 8 in file "C:\Program Files\Microchip\xc8\v2.46\pic\sources\c99\common\sprcmul.c"
  3125 ;; Parameters:    Size  Location     Type
  3126 ;;  b               4    5[BANK0 ] long 
  3127 ;;  a               4    9[BANK0 ] long 
  3128 ;; Auto vars:     Size  Location     Type
  3129 ;;  prod            4   25[BANK0 ] struct .
  3130 ;;  grs             4   20[BANK0 ] unsigned long 
  3131 ;;  temp            2   29[BANK0 ] struct .
  3132 ;;  bexp            1   24[BANK0 ] unsigned char 
  3133 ;;  aexp            1   19[BANK0 ] unsigned char 
  3134 ;;  sign            1   18[BANK0 ] unsigned char 
  3135 ;; Return value:  Size  Location     Type
  3136 ;;                  4    5[BANK0 ] unsigned char 
  3137 ;; Registers used:
  3138 ;;		wreg, status,2, status,0, pclath, cstack
  3139 ;; Tracked objects:
  3140 ;;		On entry : 0/0
  3141 ;;		On exit  : 0/0
  3142 ;;		Unchanged: 0/0
  3143 ;; Data sizes:     COMMON   BANK0   BANK1   BANK2   BANK3   BANK4   BANK5   BANK6
  3144 ;;      Params:         0       8       0       0       0       0       0       0
  3145 ;;      Locals:         0      13       0       0       0       0       0       0
  3146 ;;      Temps:          0       5       0       0       0       0       0       0
  3147 ;;      Totals:         0      26       0       0       0       0       0       0
  3148 ;;Total ram usage:       26 bytes
  3149 ;; Hardware stack levels used: 1
  3150 ;; Hardware stack levels required when called: 4
  3151 ;; This function calls:
  3152 ;;		__Umul8_16
  3153 ;; This function is called by:
  3154 ;;		_upd_disp
  3155 ;;		_upd_PWM
  3156 ;; This function uses a non-reentrant model
  3157 ;;
  3158                           
  3159     02BD                     ___flmul:	
  3160                           ;psect for function ___flmul
  3161                           
  3162     02BD                     l2846:	
  3163                           ;incstack = 0
  3164                           ; Regs used in ___flmul: [wreg+status,2+status,0+pclath+cstack]
  3165                           
  3166     02BD  0020               	movlb	0	; select bank0
  3167     02BE  0828               	movf	___flmul@b+3,w
  3168     02BF  3980               	andlw	128
  3169     02C0  00B2               	movwf	___flmul@sign
  3170     02C1                     l2848:
  3171     02C1  3528               	lslf	___flmul@b+3,w
  3172     02C2  00B8               	movwf	___flmul@bexp
  3173     02C3                     l2850:
  3174     02C3  1FA7               	btfss	___flmul@b+2,7
  3175     02C4  2AC6               	goto	u3821
  3176     02C5  2AC7               	goto	u3820
  3177     02C6                     u3821:
  3178     02C6  2AC8               	goto	l2854
  3179     02C7                     u3820:
  3180     02C7                     l2852:
  3181     02C7  1438               	bsf	___flmul@bexp,0
  3182     02C8                     l2854:
  3183     02C8  0838               	movf	___flmul@bexp,w
  3184     02C9  1903               	btfsc	3,2
  3185     02CA  2ACC               	goto	u3831
  3186     02CB  2ACD               	goto	u3830
  3187     02CC                     u3831:
  3188     02CC  2ADC               	goto	l2862
  3189     02CD                     u3830:
  3190     02CD                     l2856:
  3191     02CD  0A38               	incf	___flmul@bexp,w
  3192     02CE  1D03               	btfss	3,2
  3193     02CF  2AD1               	goto	u3841
  3194     02D0  2AD2               	goto	u3840
  3195     02D1                     u3841:
  3196     02D1  2ADA               	goto	l2860
  3197     02D2                     u3840:
  3198     02D2                     l2858:
  3199     02D2  3000               	movlw	0
  3200     02D3  00A8               	movwf	___flmul@b+3
  3201     02D4  3000               	movlw	0
  3202     02D5  00A7               	movwf	___flmul@b+2
  3203     02D6  3000               	movlw	0
  3204     02D7  00A6               	movwf	___flmul@b+1
  3205     02D8  3000               	movlw	0
  3206     02D9  00A5               	movwf	___flmul@b
  3207     02DA                     l2860:
  3208     02DA  17A7               	bsf	___flmul@b+2,7
  3209     02DB  2AE4               	goto	l2864
  3210     02DC                     l2862:
  3211     02DC  3000               	movlw	0
  3212     02DD  00A8               	movwf	___flmul@b+3
  3213     02DE  3000               	movlw	0
  3214     02DF  00A7               	movwf	___flmul@b+2
  3215     02E0  3000               	movlw	0
  3216     02E1  00A6               	movwf	___flmul@b+1
  3217     02E2  3000               	movlw	0
  3218     02E3  00A5               	movwf	___flmul@b
  3219     02E4                     l2864:
  3220     02E4  082C               	movf	___flmul@a+3,w
  3221     02E5  3980               	andlw	128
  3222     02E6  00AD               	movwf	??___flmul
  3223     02E7  082D               	movf	??___flmul,w
  3224     02E8  06B2               	xorwf	___flmul@sign,f
  3225     02E9                     l2866:
  3226     02E9  352C               	lslf	___flmul@a+3,w
  3227     02EA  00B3               	movwf	___flmul@aexp
  3228     02EB                     l2868:
  3229     02EB  1FAB               	btfss	___flmul@a+2,7
  3230     02EC  2AEE               	goto	u3851
  3231     02ED  2AEF               	goto	u3850
  3232     02EE                     u3851:
  3233     02EE  2AF0               	goto	l2872
  3234     02EF                     u3850:
  3235     02EF                     l2870:
  3236     02EF  1433               	bsf	___flmul@aexp,0
  3237     02F0                     l2872:
  3238     02F0  0833               	movf	___flmul@aexp,w
  3239     02F1  1903               	btfsc	3,2
  3240     02F2  2AF4               	goto	u3861
  3241     02F3  2AF5               	goto	u3860
  3242     02F4                     u3861:
  3243     02F4  2B04               	goto	l2880
  3244     02F5                     u3860:
  3245     02F5                     l2874:
  3246     02F5  0A33               	incf	___flmul@aexp,w
  3247     02F6  1D03               	btfss	3,2
  3248     02F7  2AF9               	goto	u3871
  3249     02F8  2AFA               	goto	u3870
  3250     02F9                     u3871:
  3251     02F9  2B02               	goto	l2878
  3252     02FA                     u3870:
  3253     02FA                     l2876:
  3254     02FA  3000               	movlw	0
  3255     02FB  00AC               	movwf	___flmul@a+3
  3256     02FC  3000               	movlw	0
  3257     02FD  00AB               	movwf	___flmul@a+2
  3258     02FE  3000               	movlw	0
  3259     02FF  00AA               	movwf	___flmul@a+1
  3260     0300  3000               	movlw	0
  3261     0301  00A9               	movwf	___flmul@a
  3262     0302                     l2878:
  3263     0302  17AB               	bsf	___flmul@a+2,7
  3264     0303  2B0C               	goto	l2882
  3265     0304                     l2880:
  3266     0304  3000               	movlw	0
  3267     0305  00AC               	movwf	___flmul@a+3
  3268     0306  3000               	movlw	0
  3269     0307  00AB               	movwf	___flmul@a+2
  3270     0308  3000               	movlw	0
  3271     0309  00AA               	movwf	___flmul@a+1
  3272     030A  3000               	movlw	0
  3273     030B  00A9               	movwf	___flmul@a
  3274     030C                     l2882:
  3275     030C  0833               	movf	___flmul@aexp,w
  3276     030D  1903               	btfsc	3,2
  3277     030E  2B10               	goto	u3881
  3278     030F  2B11               	goto	u3880
  3279     0310                     u3881:
  3280     0310  2B16               	goto	l2886
  3281     0311                     u3880:
  3282     0311                     l2884:
  3283     0311  0838               	movf	___flmul@bexp,w
  3284     0312  1D03               	btfss	3,2
  3285     0313  2B15               	goto	u3891
  3286     0314  2B16               	goto	u3890
  3287     0315                     u3891:
  3288     0315  2B1F               	goto	l2890
  3289     0316                     u3890:
  3290     0316                     l2886:
  3291     0316  3000               	movlw	0
  3292     0317  00A8               	movwf	?___flmul+3
  3293     0318  3000               	movlw	0
  3294     0319  00A7               	movwf	?___flmul+2
  3295     031A  3000               	movlw	0
  3296     031B  00A6               	movwf	?___flmul+1
  3297     031C  3000               	movlw	0
  3298     031D  00A5               	movwf	?___flmul
  3299     031E  2CF7               	goto	l749
  3300     031F                     l2890:
  3301     031F  0825               	movf	___flmul@b,w
  3302     0320  00F2               	movwf	__Umul8_16@multiplicand
  3303     0321  082B               	movf	___flmul@a+2,w
  3304     0322  3189  21E4  3182   	fcall	__Umul8_16
  3305     0325  0873               	movf	?__Umul8_16+1,w
  3306     0326  0020               	movlb	0	; select bank0
  3307     0327  00BE               	movwf	___flmul@temp+1
  3308     0328  0872               	movf	?__Umul8_16,w
  3309     0329  00BD               	movwf	___flmul@temp
  3310     032A                     l2892:
  3311     032A  083D               	movf	___flmul@temp,w
  3312     032B  00AD               	movwf	??___flmul
  3313     032C  01AE               	clrf	??___flmul+1
  3314     032D  01AF               	clrf	??___flmul+2
  3315     032E  01B0               	clrf	??___flmul+3
  3316     032F  0830               	movf	??___flmul+3,w
  3317     0330  00B7               	movwf	___flmul@grs+3
  3318     0331  082F               	movf	??___flmul+2,w
  3319     0332  00B6               	movwf	___flmul@grs+2
  3320     0333  082E               	movf	??___flmul+1,w
  3321     0334  00B5               	movwf	___flmul@grs+1
  3322     0335  082D               	movf	??___flmul,w
  3323     0336  00B4               	movwf	___flmul@grs
  3324     0337                     l2894:
  3325     0337  083E               	movf	___flmul@temp+1,w
  3326     0338  00AD               	movwf	??___flmul
  3327     0339  01AE               	clrf	??___flmul+1
  3328     033A  01AF               	clrf	??___flmul+2
  3329     033B  01B0               	clrf	??___flmul+3
  3330     033C  0830               	movf	??___flmul+3,w
  3331     033D  00BC               	movwf	___flmul@prod+3
  3332     033E  082F               	movf	??___flmul+2,w
  3333     033F  00BB               	movwf	___flmul@prod+2
  3334     0340  082E               	movf	??___flmul+1,w
  3335     0341  00BA               	movwf	___flmul@prod+1
  3336     0342  082D               	movf	??___flmul,w
  3337     0343  00B9               	movwf	___flmul@prod
  3338     0344  0826               	movf	___flmul@b+1,w
  3339     0345  00F2               	movwf	__Umul8_16@multiplicand
  3340     0346  082A               	movf	___flmul@a+1,w
  3341     0347  3189  21E4  3182   	fcall	__Umul8_16
  3342     034A  0873               	movf	?__Umul8_16+1,w
  3343     034B  0020               	movlb	0	; select bank0
  3344     034C  00BE               	movwf	___flmul@temp+1
  3345     034D  0872               	movf	?__Umul8_16,w
  3346     034E  00BD               	movwf	___flmul@temp
  3347     034F                     l2896:
  3348     034F  083D               	movf	___flmul@temp,w
  3349     0350  00AD               	movwf	??___flmul
  3350     0351  01AE               	clrf	??___flmul+1
  3351     0352  01AF               	clrf	??___flmul+2
  3352     0353  01B0               	clrf	??___flmul+3
  3353     0354  082D               	movf	??___flmul,w
  3354     0355  07B4               	addwf	___flmul@grs,f
  3355     0356  082E               	movf	??___flmul+1,w
  3356     0357  3DB5               	addwfc	___flmul@grs+1,f
  3357     0358  082F               	movf	??___flmul+2,w
  3358     0359  3DB6               	addwfc	___flmul@grs+2,f
  3359     035A  0830               	movf	??___flmul+3,w
  3360     035B  3DB7               	addwfc	___flmul@grs+3,f
  3361     035C                     l2898:
  3362     035C  083E               	movf	___flmul@temp+1,w
  3363     035D  00AD               	movwf	??___flmul
  3364     035E  01AE               	clrf	??___flmul+1
  3365     035F  01AF               	clrf	??___flmul+2
  3366     0360  01B0               	clrf	??___flmul+3
  3367     0361  082D               	movf	??___flmul,w
  3368     0362  07B9               	addwf	___flmul@prod,f
  3369     0363  082E               	movf	??___flmul+1,w
  3370     0364  3DBA               	addwfc	___flmul@prod+1,f
  3371     0365  082F               	movf	??___flmul+2,w
  3372     0366  3DBB               	addwfc	___flmul@prod+2,f
  3373     0367  0830               	movf	??___flmul+3,w
  3374     0368  3DBC               	addwfc	___flmul@prod+3,f
  3375     0369  0827               	movf	___flmul@b+2,w
  3376     036A  00F2               	movwf	__Umul8_16@multiplicand
  3377     036B  0829               	movf	___flmul@a,w
  3378     036C  3189  21E4  3182   	fcall	__Umul8_16
  3379     036F  0873               	movf	?__Umul8_16+1,w
  3380     0370  0020               	movlb	0	; select bank0
  3381     0371  00BE               	movwf	___flmul@temp+1
  3382     0372  0872               	movf	?__Umul8_16,w
  3383     0373  00BD               	movwf	___flmul@temp
  3384     0374                     l2900:
  3385     0374  083D               	movf	___flmul@temp,w
  3386     0375  00AD               	movwf	??___flmul
  3387     0376  01AE               	clrf	??___flmul+1
  3388     0377  01AF               	clrf	??___flmul+2
  3389     0378  01B0               	clrf	??___flmul+3
  3390     0379  082D               	movf	??___flmul,w
  3391     037A  07B4               	addwf	___flmul@grs,f
  3392     037B  082E               	movf	??___flmul+1,w
  3393     037C  3DB5               	addwfc	___flmul@grs+1,f
  3394     037D  082F               	movf	??___flmul+2,w
  3395     037E  3DB6               	addwfc	___flmul@grs+2,f
  3396     037F  0830               	movf	??___flmul+3,w
  3397     0380  3DB7               	addwfc	___flmul@grs+3,f
  3398     0381                     l2902:
  3399     0381  083E               	movf	___flmul@temp+1,w
  3400     0382  00AD               	movwf	??___flmul
  3401     0383  01AE               	clrf	??___flmul+1
  3402     0384  01AF               	clrf	??___flmul+2
  3403     0385  01B0               	clrf	??___flmul+3
  3404     0386  082D               	movf	??___flmul,w
  3405     0387  07B9               	addwf	___flmul@prod,f
  3406     0388  082E               	movf	??___flmul+1,w
  3407     0389  3DBA               	addwfc	___flmul@prod+1,f
  3408     038A  082F               	movf	??___flmul+2,w
  3409     038B  3DBB               	addwfc	___flmul@prod+2,f
  3410     038C  0830               	movf	??___flmul+3,w
  3411     038D  3DBC               	addwfc	___flmul@prod+3,f
  3412     038E                     l2904:
  3413     038E  3008               	movlw	8
  3414     038F                     u3905:
  3415     038F  35B4               	lslf	___flmul@grs,f
  3416     0390  0DB5               	rlf	___flmul@grs+1,f
  3417     0391  0DB6               	rlf	___flmul@grs+2,f
  3418     0392  0DB7               	rlf	___flmul@grs+3,f
  3419     0393  0B89               	decfsz	9,f
  3420     0394  2B8F               	goto	u3905
  3421     0395                     l2906:
  3422     0395  0826               	movf	___flmul@b+1,w
  3423     0396  00F2               	movwf	__Umul8_16@multiplicand
  3424     0397  0829               	movf	___flmul@a,w
  3425     0398  3189  21E4  3182   	fcall	__Umul8_16
  3426     039B  0873               	movf	?__Umul8_16+1,w
  3427     039C  0020               	movlb	0	; select bank0
  3428     039D  00BE               	movwf	___flmul@temp+1
  3429     039E  0872               	movf	?__Umul8_16,w
  3430     039F  00BD               	movwf	___flmul@temp
  3431     03A0                     l2908:
  3432     03A0  083D               	movf	___flmul@temp,w
  3433     03A1  07B4               	addwf	___flmul@grs,f
  3434     03A2  083E               	movf	___flmul@temp+1,w
  3435     03A3  3DB5               	addwfc	___flmul@grs+1,f
  3436     03A4  3000               	movlw	0
  3437     03A5  3DB6               	addwfc	___flmul@grs+2,f
  3438     03A6  3DB7               	addwfc	___flmul@grs+3,f
  3439     03A7                     l2910:
  3440     03A7  0825               	movf	___flmul@b,w
  3441     03A8  00F2               	movwf	__Umul8_16@multiplicand
  3442     03A9  082A               	movf	___flmul@a+1,w
  3443     03AA  3189  21E4  3182   	fcall	__Umul8_16
  3444     03AD  0873               	movf	?__Umul8_16+1,w
  3445     03AE  0020               	movlb	0	; select bank0
  3446     03AF  00BE               	movwf	___flmul@temp+1
  3447     03B0  0872               	movf	?__Umul8_16,w
  3448     03B1  00BD               	movwf	___flmul@temp
  3449     03B2                     l2912:
  3450     03B2  083D               	movf	___flmul@temp,w
  3451     03B3  07B4               	addwf	___flmul@grs,f
  3452     03B4  083E               	movf	___flmul@temp+1,w
  3453     03B5  3DB5               	addwfc	___flmul@grs+1,f
  3454     03B6  3000               	movlw	0
  3455     03B7  3DB6               	addwfc	___flmul@grs+2,f
  3456     03B8  3DB7               	addwfc	___flmul@grs+3,f
  3457     03B9                     l2914:
  3458     03B9  3008               	movlw	8
  3459     03BA                     u3915:
  3460     03BA  35B4               	lslf	___flmul@grs,f
  3461     03BB  0DB5               	rlf	___flmul@grs+1,f
  3462     03BC  0DB6               	rlf	___flmul@grs+2,f
  3463     03BD  0DB7               	rlf	___flmul@grs+3,f
  3464     03BE  0B89               	decfsz	9,f
  3465     03BF  2BBA               	goto	u3915
  3466     03C0  0825               	movf	___flmul@b,w
  3467     03C1  00F2               	movwf	__Umul8_16@multiplicand
  3468     03C2  0829               	movf	___flmul@a,w
  3469     03C3  3189  21E4  3182   	fcall	__Umul8_16
  3470     03C6  0873               	movf	?__Umul8_16+1,w
  3471     03C7  0020               	movlb	0	; select bank0
  3472     03C8  00BE               	movwf	___flmul@temp+1
  3473     03C9  0872               	movf	?__Umul8_16,w
  3474     03CA  00BD               	movwf	___flmul@temp
  3475     03CB                     l2916:
  3476     03CB  083D               	movf	___flmul@temp,w
  3477     03CC  07B4               	addwf	___flmul@grs,f
  3478     03CD  083E               	movf	___flmul@temp+1,w
  3479     03CE  3DB5               	addwfc	___flmul@grs+1,f
  3480     03CF  3000               	movlw	0
  3481     03D0  3DB6               	addwfc	___flmul@grs+2,f
  3482     03D1  3DB7               	addwfc	___flmul@grs+3,f
  3483     03D2                     l2918:
  3484     03D2  0826               	movf	___flmul@b+1,w
  3485     03D3  00F2               	movwf	__Umul8_16@multiplicand
  3486     03D4  082B               	movf	___flmul@a+2,w
  3487     03D5  3189  21E4  3182   	fcall	__Umul8_16
  3488     03D8  0873               	movf	?__Umul8_16+1,w
  3489     03D9  0020               	movlb	0	; select bank0
  3490     03DA  00BE               	movwf	___flmul@temp+1
  3491     03DB  0872               	movf	?__Umul8_16,w
  3492     03DC  00BD               	movwf	___flmul@temp
  3493     03DD  083D               	movf	___flmul@temp,w
  3494     03DE  07B9               	addwf	___flmul@prod,f
  3495     03DF  083E               	movf	___flmul@temp+1,w
  3496     03E0  3DBA               	addwfc	___flmul@prod+1,f
  3497     03E1  3000               	movlw	0
  3498     03E2  3DBB               	addwfc	___flmul@prod+2,f
  3499     03E3  3DBC               	addwfc	___flmul@prod+3,f
  3500     03E4                     l2920:
  3501     03E4  0827               	movf	___flmul@b+2,w
  3502     03E5  00F2               	movwf	__Umul8_16@multiplicand
  3503     03E6  082A               	movf	___flmul@a+1,w
  3504     03E7  3189  21E4  3182   	fcall	__Umul8_16
  3505     03EA  0873               	movf	?__Umul8_16+1,w
  3506     03EB  0020               	movlb	0	; select bank0
  3507     03EC  00BE               	movwf	___flmul@temp+1
  3508     03ED  0872               	movf	?__Umul8_16,w
  3509     03EE  00BD               	movwf	___flmul@temp
  3510     03EF                     l2922:
  3511     03EF  083D               	movf	___flmul@temp,w
  3512     03F0  07B9               	addwf	___flmul@prod,f
  3513     03F1  083E               	movf	___flmul@temp+1,w
  3514     03F2  3DBA               	addwfc	___flmul@prod+1,f
  3515     03F3  3000               	movlw	0
  3516     03F4  3DBB               	addwfc	___flmul@prod+2,f
  3517     03F5  3DBC               	addwfc	___flmul@prod+3,f
  3518     03F6  0827               	movf	___flmul@b+2,w
  3519     03F7  00F2               	movwf	__Umul8_16@multiplicand
  3520     03F8  082B               	movf	___flmul@a+2,w
  3521     03F9  3189  21E4  3182   	fcall	__Umul8_16
  3522     03FC  0873               	movf	?__Umul8_16+1,w
  3523     03FD  0020               	movlb	0	; select bank0
  3524     03FE  00BE               	movwf	___flmul@temp+1
  3525     03FF  0872               	movf	?__Umul8_16,w
  3526     0400  00BD               	movwf	___flmul@temp
  3527     0401                     l2924:
  3528     0401  083D               	movf	___flmul@temp,w
  3529     0402  00AD               	movwf	??___flmul
  3530     0403  083E               	movf	___flmul@temp+1,w
  3531     0404  00AE               	movwf	??___flmul+1
  3532     0405  01AF               	clrf	??___flmul+2
  3533     0406  01B0               	clrf	??___flmul+3
  3534     0407  3008               	movlw	8
  3535     0408                     u3925:
  3536     0408  35AD               	lslf	??___flmul,f
  3537     0409  0DAE               	rlf	??___flmul+1,f
  3538     040A  0DAF               	rlf	??___flmul+2,f
  3539     040B  0DB0               	rlf	??___flmul+3,f
  3540     040C                     u3920:
  3541     040C  0B89               	decfsz	9,f
  3542     040D  2C08               	goto	u3925
  3543     040E  082D               	movf	??___flmul,w
  3544     040F  07B9               	addwf	___flmul@prod,f
  3545     0410  082E               	movf	??___flmul+1,w
  3546     0411  3DBA               	addwfc	___flmul@prod+1,f
  3547     0412  082F               	movf	??___flmul+2,w
  3548     0413  3DBB               	addwfc	___flmul@prod+2,f
  3549     0414  0830               	movf	??___flmul+3,w
  3550     0415  3DBC               	addwfc	___flmul@prod+3,f
  3551     0416                     l2926:
  3552     0416  0834               	movf	___flmul@grs,w
  3553     0417  00AD               	movwf	??___flmul
  3554     0418  0835               	movf	___flmul@grs+1,w
  3555     0419  00AE               	movwf	??___flmul+1
  3556     041A  0836               	movf	___flmul@grs+2,w
  3557     041B  00AF               	movwf	??___flmul+2
  3558     041C  0837               	movf	___flmul@grs+3,w
  3559     041D  00B0               	movwf	??___flmul+3
  3560     041E  3018               	movlw	24
  3561     041F                     u3935:
  3562     041F  36B0               	lsrf	??___flmul+3,f
  3563     0420  0CAF               	rrf	??___flmul+2,f
  3564     0421  0CAE               	rrf	??___flmul+1,f
  3565     0422  0CAD               	rrf	??___flmul,f
  3566     0423                     u3930:
  3567     0423  0B89               	decfsz	9,f
  3568     0424  2C1F               	goto	u3935
  3569     0425  082D               	movf	??___flmul,w
  3570     0426  07B9               	addwf	___flmul@prod,f
  3571     0427  082E               	movf	??___flmul+1,w
  3572     0428  3DBA               	addwfc	___flmul@prod+1,f
  3573     0429  082F               	movf	??___flmul+2,w
  3574     042A  3DBB               	addwfc	___flmul@prod+2,f
  3575     042B  0830               	movf	??___flmul+3,w
  3576     042C  3DBC               	addwfc	___flmul@prod+3,f
  3577     042D                     l2928:
  3578     042D  3008               	movlw	8
  3579     042E                     u3945:
  3580     042E  35B4               	lslf	___flmul@grs,f
  3581     042F  0DB5               	rlf	___flmul@grs+1,f
  3582     0430  0DB6               	rlf	___flmul@grs+2,f
  3583     0431  0DB7               	rlf	___flmul@grs+3,f
  3584     0432  0B89               	decfsz	9,f
  3585     0433  2C2E               	goto	u3945
  3586     0434                     l2930:
  3587     0434  0838               	movf	___flmul@bexp,w
  3588     0435  0733               	addwf	___flmul@aexp,w
  3589     0436  00AD               	movwf	??___flmul
  3590     0437  01AE               	clrf	??___flmul+1
  3591     0438  0DAE               	rlf	??___flmul+1,f
  3592     0439  082D               	movf	??___flmul,w
  3593     043A  3E82               	addlw	130
  3594     043B  00BD               	movwf	___flmul@temp
  3595     043C  30FF               	movlw	255
  3596     043D  3D2E               	addwfc	??___flmul+1,w
  3597     043E  00BE               	movwf	___flmul@temp+1
  3598     043F  2C57               	goto	l2942
  3599     0440                     l2932:
  3600     0440  3001               	movlw	1
  3601     0441                     u3955:
  3602     0441  35B9               	lslf	___flmul@prod,f
  3603     0442  0DBA               	rlf	___flmul@prod+1,f
  3604     0443  0DBB               	rlf	___flmul@prod+2,f
  3605     0444  0DBC               	rlf	___flmul@prod+3,f
  3606     0445  0B89               	decfsz	9,f
  3607     0446  2C41               	goto	u3955
  3608     0447                     l2934:
  3609     0447  1FB7               	btfss	___flmul@grs+3,7
  3610     0448  2C4A               	goto	u3961
  3611     0449  2C4B               	goto	u3960
  3612     044A                     u3961:
  3613     044A  2C4C               	goto	l2938
  3614     044B                     u3960:
  3615     044B                     l2936:
  3616     044B  1439               	bsf	___flmul@prod,0
  3617     044C                     l2938:
  3618     044C  3001               	movlw	1
  3619     044D                     u3975:
  3620     044D  35B4               	lslf	___flmul@grs,f
  3621     044E  0DB5               	rlf	___flmul@grs+1,f
  3622     044F  0DB6               	rlf	___flmul@grs+2,f
  3623     0450  0DB7               	rlf	___flmul@grs+3,f
  3624     0451  0B89               	decfsz	9,f
  3625     0452  2C4D               	goto	u3975
  3626     0453                     l2940:
  3627     0453  30FF               	movlw	255
  3628     0454  07BD               	addwf	___flmul@temp,f
  3629     0455  30FF               	movlw	255
  3630     0456  3DBE               	addwfc	___flmul@temp+1,f
  3631     0457                     l2942:
  3632     0457  1FBB               	btfss	___flmul@prod+2,7
  3633     0458  2C5A               	goto	u3981
  3634     0459  2C5B               	goto	u3980
  3635     045A                     u3981:
  3636     045A  2C40               	goto	l2932
  3637     045B                     u3980:
  3638     045B                     l2944:
  3639     045B  01B3               	clrf	___flmul@aexp
  3640     045C                     l2946:
  3641     045C  1FB7               	btfss	___flmul@grs+3,7
  3642     045D  2C5F               	goto	u3991
  3643     045E  2C60               	goto	u3990
  3644     045F                     u3991:
  3645     045F  2C7C               	goto	l2954
  3646     0460                     u3990:
  3647     0460                     l2948:
  3648     0460  30FF               	movlw	255
  3649     0461  0534               	andwf	___flmul@grs,w
  3650     0462  00AD               	movwf	??___flmul
  3651     0463  30FF               	movlw	255
  3652     0464  0535               	andwf	___flmul@grs+1,w
  3653     0465  00AE               	movwf	??___flmul+1
  3654     0466  30FF               	movlw	255
  3655     0467  0536               	andwf	___flmul@grs+2,w
  3656     0468  00AF               	movwf	??___flmul+2
  3657     0469  307F               	movlw	127
  3658     046A  0537               	andwf	___flmul@grs+3,w
  3659     046B  00B0               	movwf	??___flmul+3
  3660     046C  0830               	movf	??___flmul+3,w
  3661     046D  042F               	iorwf	??___flmul+2,w
  3662     046E  042E               	iorwf	??___flmul+1,w
  3663     046F  042D               	iorwf	??___flmul,w
  3664     0470  1903               	skipnz
  3665     0471  2C73               	goto	u4001
  3666     0472  2C74               	goto	u4000
  3667     0473                     u4001:
  3668     0473  2C77               	goto	l755
  3669     0474                     u4000:
  3670     0474                     l2950:
  3671     0474  01B3               	clrf	___flmul@aexp
  3672     0475  0AB3               	incf	___flmul@aexp,f
  3673     0476  2C7C               	goto	l2954
  3674     0477                     l755:
  3675     0477  1C39               	btfss	___flmul@prod,0
  3676     0478  2C7A               	goto	u4011
  3677     0479  2C7B               	goto	u4010
  3678     047A                     u4011:
  3679     047A  2C7C               	goto	l2954
  3680     047B                     u4010:
  3681     047B  2C74               	goto	l2950
  3682     047C                     l2954:
  3683     047C  0833               	movf	___flmul@aexp,w
  3684     047D  1903               	btfsc	3,2
  3685     047E  2C80               	goto	u4021
  3686     047F  2C81               	goto	u4020
  3687     0480                     u4021:
  3688     0480  2CA9               	goto	l2964
  3689     0481                     u4020:
  3690     0481                     l2956:
  3691     0481  3001               	movlw	1
  3692     0482  07B9               	addwf	___flmul@prod,f
  3693     0483  3000               	movlw	0
  3694     0484  3DBA               	addwfc	___flmul@prod+1,f
  3695     0485  3000               	movlw	0
  3696     0486  3DBB               	addwfc	___flmul@prod+2,f
  3697     0487  3000               	movlw	0
  3698     0488  3DBC               	addwfc	___flmul@prod+3,f
  3699     0489                     l2958:
  3700     0489  1C3C               	btfss	___flmul@prod+3,0
  3701     048A  2C8C               	goto	u4031
  3702     048B  2C8D               	goto	u4030
  3703     048C                     u4031:
  3704     048C  2CA9               	goto	l2964
  3705     048D                     u4030:
  3706     048D                     l2960:
  3707     048D  0839               	movf	___flmul@prod,w
  3708     048E  00AD               	movwf	??___flmul
  3709     048F  083A               	movf	___flmul@prod+1,w
  3710     0490  00AE               	movwf	??___flmul+1
  3711     0491  083B               	movf	___flmul@prod+2,w
  3712     0492  00AF               	movwf	??___flmul+2
  3713     0493  083C               	movf	___flmul@prod+3,w
  3714     0494  00B0               	movwf	??___flmul+3
  3715     0495  3001               	movlw	1
  3716     0496  00B1               	movwf	??___flmul+4
  3717     0497                     u4045:
  3718     0497  37B0               	asrf	??___flmul+3,f
  3719     0498  0CAF               	rrf	??___flmul+2,f
  3720     0499  0CAE               	rrf	??___flmul+1,f
  3721     049A  0CAD               	rrf	??___flmul,f
  3722     049B                     u4040:
  3723     049B  0BB1               	decfsz	??___flmul+4,f
  3724     049C  2C97               	goto	u4045
  3725     049D  0830               	movf	??___flmul+3,w
  3726     049E  00BC               	movwf	___flmul@prod+3
  3727     049F  082F               	movf	??___flmul+2,w
  3728     04A0  00BB               	movwf	___flmul@prod+2
  3729     04A1  082E               	movf	??___flmul+1,w
  3730     04A2  00BA               	movwf	___flmul@prod+1
  3731     04A3  082D               	movf	??___flmul,w
  3732     04A4  00B9               	movwf	___flmul@prod
  3733     04A5                     l2962:
  3734     04A5  3001               	movlw	1
  3735     04A6  07BD               	addwf	___flmul@temp,f
  3736     04A7  3000               	movlw	0
  3737     04A8  3DBE               	addwfc	___flmul@temp+1,f
  3738     04A9                     l2964:
  3739     04A9  083E               	movf	___flmul@temp+1,w
  3740     04AA  3A80               	xorlw	128
  3741     04AB  00AD               	movwf	??___flmul
  3742     04AC  3080               	movlw	128
  3743     04AD  022D               	subwf	??___flmul,w
  3744     04AE  1D03               	skipz
  3745     04AF  2CB2               	goto	u4055
  3746     04B0  30FF               	movlw	255
  3747     04B1  023D               	subwf	___flmul@temp,w
  3748     04B2                     u4055:
  3749     04B2  1C03               	skipc
  3750     04B3  2CB5               	goto	u4051
  3751     04B4  2CB6               	goto	u4050
  3752     04B5                     u4051:
  3753     04B5  2CC0               	goto	l2968
  3754     04B6                     u4050:
  3755     04B6                     l2966:
  3756     04B6  307F               	movlw	127
  3757     04B7  0020               	movlb	0	; select bank0
  3758     04B8  00BC               	movwf	___flmul@prod+3
  3759     04B9  3080               	movlw	128
  3760     04BA  00BB               	movwf	___flmul@prod+2
  3761     04BB  3000               	movlw	0
  3762     04BC  00BA               	movwf	___flmul@prod+1
  3763     04BD  3000               	movlw	0
  3764     04BE  00B9               	movwf	___flmul@prod
  3765     04BF  2CEB               	goto	l761
  3766     04C0                     l2968:
  3767     04C0  0020               	movlb	0	; select bank0
  3768     04C1  083E               	movf	___flmul@temp+1,w
  3769     04C2  3A80               	xorlw	128
  3770     04C3  00AD               	movwf	??___flmul
  3771     04C4  3080               	movlw	128
  3772     04C5  022D               	subwf	??___flmul,w
  3773     04C6  1D03               	skipz
  3774     04C7  2CCA               	goto	u4065
  3775     04C8  3001               	movlw	1
  3776     04C9  023D               	subwf	___flmul@temp,w
  3777     04CA                     u4065:
  3778     04CA  1803               	skipnc
  3779     04CB  2CCD               	goto	u4061
  3780     04CC  2CCE               	goto	u4060
  3781     04CD                     u4061:
  3782     04CD  2CD9               	goto	l2974
  3783     04CE                     u4060:
  3784     04CE                     l2970:
  3785     04CE  3000               	movlw	0
  3786     04CF  0020               	movlb	0	; select bank0
  3787     04D0  00BC               	movwf	___flmul@prod+3
  3788     04D1  3000               	movlw	0
  3789     04D2  00BB               	movwf	___flmul@prod+2
  3790     04D3  3000               	movlw	0
  3791     04D4  00BA               	movwf	___flmul@prod+1
  3792     04D5  3000               	movlw	0
  3793     04D6  00B9               	movwf	___flmul@prod
  3794     04D7                     l2972:
  3795     04D7  01B2               	clrf	___flmul@sign
  3796     04D8  2CEB               	goto	l761
  3797     04D9                     l2974:
  3798     04D9  0020               	movlb	0	; select bank0
  3799     04DA  083D               	movf	___flmul@temp,w
  3800     04DB  00B8               	movwf	___flmul@bexp
  3801     04DC  30FF               	movlw	255
  3802     04DD  05B9               	andwf	___flmul@prod,f
  3803     04DE  30FF               	movlw	255
  3804     04DF  05BA               	andwf	___flmul@prod+1,f
  3805     04E0  307F               	movlw	127
  3806     04E1  05BB               	andwf	___flmul@prod+2,f
  3807     04E2  3000               	movlw	0
  3808     04E3  05BC               	andwf	___flmul@prod+3,f
  3809     04E4                     l2976:
  3810     04E4  1C38               	btfss	___flmul@bexp,0
  3811     04E5  2CE7               	goto	u4071
  3812     04E6  2CE8               	goto	u4070
  3813     04E7                     u4071:
  3814     04E7  2CE9               	goto	l2980
  3815     04E8                     u4070:
  3816     04E8                     l2978:
  3817     04E8  17BB               	bsf	___flmul@prod+2,7
  3818     04E9                     l2980:
  3819     04E9  3638               	lsrf	___flmul@bexp,w
  3820     04EA  00BC               	movwf	___flmul@prod+3
  3821     04EB                     l761:
  3822     04EB  0832               	movf	___flmul@sign,w
  3823     04EC  00AD               	movwf	??___flmul
  3824     04ED  082D               	movf	??___flmul,w
  3825     04EE  04BC               	iorwf	___flmul@prod+3,f
  3826     04EF                     l2982:
  3827     04EF  083C               	movf	___flmul@prod+3,w
  3828     04F0  00A8               	movwf	?___flmul+3
  3829     04F1  083B               	movf	___flmul@prod+2,w
  3830     04F2  00A7               	movwf	?___flmul+2
  3831     04F3  083A               	movf	___flmul@prod+1,w
  3832     04F4  00A6               	movwf	?___flmul+1
  3833     04F5  0839               	movf	___flmul@prod,w
  3834     04F6  00A5               	movwf	?___flmul
  3835     04F7                     l749:
  3836     04F7  0008               	return
  3837     04F8                     __end_of___flmul:
  3838                           
  3839                           	psect	text8
  3840     09E4                     __ptext8:	
  3841 ;; *************** function __Umul8_16 *****************
  3842 ;; Defined at:
  3843 ;;		line 4 in file "C:\Program Files\Microchip\xc8\v2.46\pic\sources\c99\common\Umul8_16.c"
  3844 ;; Parameters:    Size  Location     Type
  3845 ;;  multiplier      1    wreg     unsigned char 
  3846 ;;  multiplicand    1    2[COMMON] unsigned char 
  3847 ;; Auto vars:     Size  Location     Type
  3848 ;;  multiplier      1    4[BANK0 ] unsigned char 
  3849 ;;  word_mpld       2    2[BANK0 ] unsigned short 
  3850 ;;  product         2    0[BANK0 ] unsigned short 
  3851 ;; Return value:  Size  Location     Type
  3852 ;;                  2    2[COMMON] unsigned int 
  3853 ;; Registers used:
  3854 ;;		wreg, status,2, status,0
  3855 ;; Tracked objects:
  3856 ;;		On entry : 0/0
  3857 ;;		On exit  : 0/0
  3858 ;;		Unchanged: 0/0
  3859 ;; Data sizes:     COMMON   BANK0   BANK1   BANK2   BANK3   BANK4   BANK5   BANK6
  3860 ;;      Params:         2       0       0       0       0       0       0       0
  3861 ;;      Locals:         0       5       0       0       0       0       0       0
  3862 ;;      Temps:          2       0       0       0       0       0       0       0
  3863 ;;      Totals:         4       5       0       0       0       0       0       0
  3864 ;;Total ram usage:        9 bytes
  3865 ;; Hardware stack levels used: 1
  3866 ;; Hardware stack levels required when called: 3
  3867 ;; This function calls:
  3868 ;;		Nothing
  3869 ;; This function is called by:
  3870 ;;		___flmul
  3871 ;; This function uses a non-reentrant model
  3872 ;;
  3873                           
  3874     09E4                     __Umul8_16:	
  3875                           ;psect for function __Umul8_16
  3876                           
  3877                           
  3878                           ;incstack = 0
  3879                           ; Regs used in __Umul8_16: [wreg+status,2+status,0]
  3880                           ;__Umul8_16@multiplier stored from wreg
  3881     09E4  0020               	movlb	0	; select bank0
  3882     09E5  00A4               	movwf	__Umul8_16@multiplier
  3883     09E6                     l2726:
  3884     09E6  01A0               	clrf	__Umul8_16@product
  3885     09E7  01A1               	clrf	__Umul8_16@product+1
  3886     09E8                     l2728:
  3887     09E8  0872               	movf	__Umul8_16@multiplicand,w
  3888     09E9  00F4               	movwf	??__Umul8_16
  3889     09EA  01F5               	clrf	??__Umul8_16+1
  3890     09EB  0874               	movf	??__Umul8_16,w
  3891     09EC  00A2               	movwf	__Umul8_16@word_mpld
  3892     09ED  0875               	movf	??__Umul8_16+1,w
  3893     09EE  00A3               	movwf	__Umul8_16@word_mpld+1
  3894     09EF                     l2730:
  3895     09EF  1C24               	btfss	__Umul8_16@multiplier,0
  3896     09F0  29F2               	goto	u3541
  3897     09F1  29F3               	goto	u3540
  3898     09F2                     u3541:
  3899     09F2  29F7               	goto	l768
  3900     09F3                     u3540:
  3901     09F3                     l2732:
  3902     09F3  0822               	movf	__Umul8_16@word_mpld,w
  3903     09F4  07A0               	addwf	__Umul8_16@product,f
  3904     09F5  0823               	movf	__Umul8_16@word_mpld+1,w
  3905     09F6  3DA1               	addwfc	__Umul8_16@product+1,f
  3906     09F7                     l768:
  3907     09F7  3001               	movlw	1
  3908     09F8                     u3555:
  3909     09F8  35A2               	lslf	__Umul8_16@word_mpld,f
  3910     09F9  0DA3               	rlf	__Umul8_16@word_mpld+1,f
  3911     09FA  0B89               	decfsz	9,f
  3912     09FB  29F8               	goto	u3555
  3913     09FC  1003               	clrc
  3914     09FD  0CA4               	rrf	__Umul8_16@multiplier,f
  3915     09FE                     l2734:
  3916     09FE  0824               	movf	__Umul8_16@multiplier,w
  3917     09FF  1D03               	btfss	3,2
  3918     0A00  2A02               	goto	u3561
  3919     0A01  2A03               	goto	u3560
  3920     0A02                     u3561:
  3921     0A02  29EF               	goto	l2730
  3922     0A03                     u3560:
  3923     0A03                     l2736:
  3924     0A03  0821               	movf	__Umul8_16@product+1,w
  3925     0A04  00F3               	movwf	?__Umul8_16+1
  3926     0A05  0820               	movf	__Umul8_16@product,w
  3927     0A06  00F2               	movwf	?__Umul8_16
  3928     0A07                     l770:
  3929     0A07  0008               	return
  3930     0A08                     __end_of__Umul8_16:
  3931                           
  3932                           	psect	text9
  3933     0BE8                     __ptext9:	
  3934 ;; *************** function ___flge *****************
  3935 ;; Defined at:
  3936 ;;		line 4 in file "C:\Program Files\Microchip\xc8\v2.46\pic\sources\c99\common\flge.c"
  3937 ;; Parameters:    Size  Location     Type
  3938 ;;  ff1             4    0[BANK1 ] unsigned int 
  3939 ;;  ff2             4    4[BANK1 ] unsigned int 
  3940 ;; Auto vars:     Size  Location     Type
  3941 ;;		None
  3942 ;; Return value:  Size  Location     Type
  3943 ;;		None               void
  3944 ;; Registers used:
  3945 ;;		wreg, status,2, status,0
  3946 ;; Tracked objects:
  3947 ;;		On entry : 0/0
  3948 ;;		On exit  : 0/0
  3949 ;;		Unchanged: 0/0
  3950 ;; Data sizes:     COMMON   BANK0   BANK1   BANK2   BANK3   BANK4   BANK5   BANK6
  3951 ;;      Params:         0       0       8       0       0       0       0       0
  3952 ;;      Locals:         0       0       0       0       0       0       0       0
  3953 ;;      Temps:          0       0       4       0       0       0       0       0
  3954 ;;      Totals:         0       0      12       0       0       0       0       0
  3955 ;;Total ram usage:       12 bytes
  3956 ;; Hardware stack levels used: 1
  3957 ;; Hardware stack levels required when called: 3
  3958 ;; This function calls:
  3959 ;;		Nothing
  3960 ;; This function is called by:
  3961 ;;		_upd_PWM
  3962 ;;		_main
  3963 ;; This function uses a non-reentrant model
  3964 ;;
  3965                           
  3966     0BE8                     ___flge:	
  3967                           ;psect for function ___flge
  3968                           
  3969     0BE8                     l2784:	
  3970                           ;incstack = 0
  3971                           ; Regs used in ___flge: [wreg+status,2+status,0]
  3972                           
  3973     0BE8  3000               	movlw	0
  3974     0BE9  0021               	movlb	1	; select bank1
  3975     0BEA  0520               	andwf	___flge@ff1^(0+128),w
  3976     0BEB  00A8               	movwf	??___flge^(0+128)
  3977     0BEC  3000               	movlw	0
  3978     0BED  0521               	andwf	(___flge@ff1+1)^(0+128),w
  3979     0BEE  00A9               	movwf	(??___flge^(0+128)+1)
  3980     0BEF  3080               	movlw	128
  3981     0BF0  0522               	andwf	(___flge@ff1+2)^(0+128),w
  3982     0BF1  00AA               	movwf	(??___flge^(0+128)+2)
  3983     0BF2  307F               	movlw	127
  3984     0BF3  0523               	andwf	(___flge@ff1+3)^(0+128),w
  3985     0BF4  00AB               	movwf	(??___flge^(0+128)+3)
  3986     0BF5  082B               	movf	(??___flge+3)^(0+128),w
  3987     0BF6  042A               	iorwf	(??___flge+2)^(0+128),w
  3988     0BF7  0429               	iorwf	(??___flge+1)^(0+128),w
  3989     0BF8  0428               	iorwf	??___flge^(0+128),w
  3990     0BF9  1D03               	skipz
  3991     0BFA  2BFC               	goto	u3671
  3992     0BFB  2BFD               	goto	u3670
  3993     0BFC                     u3671:
  3994     0BFC  2C05               	goto	l530
  3995     0BFD                     u3670:
  3996     0BFD                     l2786:
  3997     0BFD  3000               	movlw	0
  3998     0BFE  00A3               	movwf	(___flge@ff1+3)^(0+128)
  3999     0BFF  3000               	movlw	0
  4000     0C00  00A2               	movwf	(___flge@ff1+2)^(0+128)
  4001     0C01  3000               	movlw	0
  4002     0C02  00A1               	movwf	(___flge@ff1+1)^(0+128)
  4003     0C03  3000               	movlw	0
  4004     0C04  00A0               	movwf	___flge@ff1^(0+128)
  4005     0C05                     l530:
  4006     0C05  3000               	movlw	0
  4007     0C06  0524               	andwf	___flge@ff2^(0+128),w
  4008     0C07  00A8               	movwf	??___flge^(0+128)
  4009     0C08  3000               	movlw	0
  4010     0C09  0525               	andwf	(___flge@ff2+1)^(0+128),w
  4011     0C0A  00A9               	movwf	(??___flge^(0+128)+1)
  4012     0C0B  3080               	movlw	128
  4013     0C0C  0526               	andwf	(___flge@ff2+2)^(0+128),w
  4014     0C0D  00AA               	movwf	(??___flge^(0+128)+2)
  4015     0C0E  307F               	movlw	127
  4016     0C0F  0527               	andwf	(___flge@ff2+3)^(0+128),w
  4017     0C10  00AB               	movwf	(??___flge^(0+128)+3)
  4018     0C11  082B               	movf	(??___flge+3)^(0+128),w
  4019     0C12  042A               	iorwf	(??___flge+2)^(0+128),w
  4020     0C13  0429               	iorwf	(??___flge+1)^(0+128),w
  4021     0C14  0428               	iorwf	??___flge^(0+128),w
  4022     0C15  1D03               	skipz
  4023     0C16  2C18               	goto	u3681
  4024     0C17  2C19               	goto	u3680
  4025     0C18                     u3681:
  4026     0C18  2C21               	goto	l2790
  4027     0C19                     u3680:
  4028     0C19                     l2788:
  4029     0C19  3000               	movlw	0
  4030     0C1A  00A7               	movwf	(___flge@ff2+3)^(0+128)
  4031     0C1B  3000               	movlw	0
  4032     0C1C  00A6               	movwf	(___flge@ff2+2)^(0+128)
  4033     0C1D  3000               	movlw	0
  4034     0C1E  00A5               	movwf	(___flge@ff2+1)^(0+128)
  4035     0C1F  3000               	movlw	0
  4036     0C20  00A4               	movwf	___flge@ff2^(0+128)
  4037     0C21                     l2790:
  4038     0C21  1FA3               	btfss	(___flge@ff1+3)^(0+128),7
  4039     0C22  2C24               	goto	u3691
  4040     0C23  2C25               	goto	u3690
  4041     0C24                     u3691:
  4042     0C24  2C3D               	goto	l2794
  4043     0C25                     u3690:
  4044     0C25                     l2792:
  4045     0C25  3000               	movlw	0
  4046     0C26  00A8               	movwf	??___flge^(0+128)
  4047     0C27  3000               	movlw	0
  4048     0C28  00A9               	movwf	(??___flge^(0+128)+1)
  4049     0C29  3000               	movlw	0
  4050     0C2A  00AA               	movwf	(??___flge^(0+128)+2)
  4051     0C2B  3080               	movlw	128
  4052     0C2C  00AB               	movwf	(??___flge^(0+128)+3)
  4053     0C2D  0820               	movf	___flge@ff1^(0+128),w
  4054     0C2E  02A8               	subwf	??___flge^(0+128),f
  4055     0C2F  0821               	movf	(___flge@ff1+1)^(0+128),w
  4056     0C30  3BA9               	subwfb	(??___flge^(0+128)+1),f
  4057     0C31  0822               	movf	(___flge@ff1+2)^(0+128),w
  4058     0C32  3BAA               	subwfb	(??___flge^(0+128)+2),f
  4059     0C33  0823               	movf	(___flge@ff1+3)^(0+128),w
  4060     0C34  3BAB               	subwfb	(??___flge^(0+128)+3),f
  4061     0C35  082B               	movf	(??___flge+3)^(0+128),w
  4062     0C36  00A3               	movwf	(___flge@ff1+3)^(0+128)
  4063     0C37  082A               	movf	(??___flge+2)^(0+128),w
  4064     0C38  00A2               	movwf	(___flge@ff1+2)^(0+128)
  4065     0C39  0829               	movf	(??___flge+1)^(0+128),w
  4066     0C3A  00A1               	movwf	(___flge@ff1+1)^(0+128)
  4067     0C3B  0828               	movf	??___flge^(0+128),w
  4068     0C3C  00A0               	movwf	___flge@ff1^(0+128)
  4069     0C3D                     l2794:
  4070     0C3D  1FA7               	btfss	(___flge@ff2+3)^(0+128),7
  4071     0C3E  2C40               	goto	u3701
  4072     0C3F  2C41               	goto	u3700
  4073     0C40                     u3701:
  4074     0C40  2C59               	goto	l533
  4075     0C41                     u3700:
  4076     0C41                     l2796:
  4077     0C41  3000               	movlw	0
  4078     0C42  00A8               	movwf	??___flge^(0+128)
  4079     0C43  3000               	movlw	0
  4080     0C44  00A9               	movwf	(??___flge^(0+128)+1)
  4081     0C45  3000               	movlw	0
  4082     0C46  00AA               	movwf	(??___flge^(0+128)+2)
  4083     0C47  3080               	movlw	128
  4084     0C48  00AB               	movwf	(??___flge^(0+128)+3)
  4085     0C49  0824               	movf	___flge@ff2^(0+128),w
  4086     0C4A  02A8               	subwf	??___flge^(0+128),f
  4087     0C4B  0825               	movf	(___flge@ff2+1)^(0+128),w
  4088     0C4C  3BA9               	subwfb	(??___flge^(0+128)+1),f
  4089     0C4D  0826               	movf	(___flge@ff2+2)^(0+128),w
  4090     0C4E  3BAA               	subwfb	(??___flge^(0+128)+2),f
  4091     0C4F  0827               	movf	(___flge@ff2+3)^(0+128),w
  4092     0C50  3BAB               	subwfb	(??___flge^(0+128)+3),f
  4093     0C51  082B               	movf	(??___flge+3)^(0+128),w
  4094     0C52  00A7               	movwf	(___flge@ff2+3)^(0+128)
  4095     0C53  082A               	movf	(??___flge+2)^(0+128),w
  4096     0C54  00A6               	movwf	(___flge@ff2+2)^(0+128)
  4097     0C55  0829               	movf	(??___flge+1)^(0+128),w
  4098     0C56  00A5               	movwf	(___flge@ff2+1)^(0+128)
  4099     0C57  0828               	movf	??___flge^(0+128),w
  4100     0C58  00A4               	movwf	___flge@ff2^(0+128)
  4101     0C59                     l533:
  4102     0C59  3080               	movlw	128
  4103     0C5A  06A3               	xorwf	(___flge@ff1+3)^(0+128),f
  4104     0C5B  3080               	movlw	128
  4105     0C5C  06A7               	xorwf	(___flge@ff2+3)^(0+128),f
  4106     0C5D  0827               	movf	(___flge@ff2+3)^(0+128),w
  4107     0C5E  0223               	subwf	(___flge@ff1+3)^(0+128),w
  4108     0C5F  1D03               	skipz
  4109     0C60  2C6B               	goto	u3715
  4110     0C61  0826               	movf	(___flge@ff2+2)^(0+128),w
  4111     0C62  0222               	subwf	(___flge@ff1+2)^(0+128),w
  4112     0C63  1D03               	skipz
  4113     0C64  2C6B               	goto	u3715
  4114     0C65  0825               	movf	(___flge@ff2+1)^(0+128),w
  4115     0C66  0221               	subwf	(___flge@ff1+1)^(0+128),w
  4116     0C67  1D03               	skipz
  4117     0C68  2C6B               	goto	u3715
  4118     0C69  0824               	movf	___flge@ff2^(0+128),w
  4119     0C6A  0220               	subwf	___flge@ff1^(0+128),w
  4120     0C6B                     u3715:
  4121     0C6B  1803               	skipnc
  4122     0C6C  2C6E               	goto	u3711
  4123     0C6D  2C6F               	goto	u3710
  4124     0C6E                     u3711:
  4125     0C6E  2C71               	goto	l2800
  4126     0C6F                     u3710:
  4127     0C6F                     l2798:
  4128     0C6F  1003               	clrc
  4129     0C70  2C72               	goto	l538
  4130     0C71                     l2800:
  4131     0C71  1403               	setc
  4132     0C72                     l538:
  4133     0C72  0008               	return
  4134     0C73                     __end_of___flge:
  4135                           
  4136                           	psect	text10
  4137     07AF                     __ptext10:	
  4138 ;; *************** function ___fleq *****************
  4139 ;; Defined at:
  4140 ;;		line 4 in file "C:\Program Files\Microchip\xc8\v2.46\pic\sources\c99\common\fleq.c"
  4141 ;; Parameters:    Size  Location     Type
  4142 ;;  ff1             4    2[COMMON] unsigned int 
  4143 ;;  ff2             4    6[COMMON] unsigned int 
  4144 ;; Auto vars:     Size  Location     Type
  4145 ;;		None
  4146 ;; Return value:  Size  Location     Type
  4147 ;;		None               void
  4148 ;; Registers used:
  4149 ;;		wreg, status,2, status,0
  4150 ;; Tracked objects:
  4151 ;;		On entry : 0/0
  4152 ;;		On exit  : 0/0
  4153 ;;		Unchanged: 0/0
  4154 ;; Data sizes:     COMMON   BANK0   BANK1   BANK2   BANK3   BANK4   BANK5   BANK6
  4155 ;;      Params:         8       0       0       0       0       0       0       0
  4156 ;;      Locals:         0       0       0       0       0       0       0       0
  4157 ;;      Temps:          0       4       0       0       0       0       0       0
  4158 ;;      Totals:         8       4       0       0       0       0       0       0
  4159 ;;Total ram usage:       12 bytes
  4160 ;; Hardware stack levels used: 1
  4161 ;; Hardware stack levels required when called: 3
  4162 ;; This function calls:
  4163 ;;		Nothing
  4164 ;; This function is called by:
  4165 ;;		_upd_PWM
  4166 ;; This function uses a non-reentrant model
  4167 ;;
  4168                           
  4169     07AF                     ___fleq:	
  4170                           ;psect for function ___fleq
  4171                           
  4172     07AF                     l2068:	
  4173                           ;incstack = 0
  4174                           ; Regs used in ___fleq: [wreg+status,2+status,0]
  4175                           
  4176     07AF  3000               	movlw	0
  4177     07B0  0572               	andwf	___fleq@ff1,w
  4178     07B1  0020               	movlb	0	; select bank0
  4179     07B2  00A0               	movwf	??___fleq
  4180     07B3  3000               	movlw	0
  4181     07B4  0573               	andwf	___fleq@ff1+1,w
  4182     07B5  00A1               	movwf	??___fleq+1
  4183     07B6  3080               	movlw	128
  4184     07B7  0574               	andwf	___fleq@ff1+2,w
  4185     07B8  00A2               	movwf	??___fleq+2
  4186     07B9  307F               	movlw	127
  4187     07BA  0575               	andwf	___fleq@ff1+3,w
  4188     07BB  00A3               	movwf	??___fleq+3
  4189     07BC  0823               	movf	??___fleq+3,w
  4190     07BD  0422               	iorwf	??___fleq+2,w
  4191     07BE  0421               	iorwf	??___fleq+1,w
  4192     07BF  0420               	iorwf	??___fleq,w
  4193     07C0  1D03               	skipz
  4194     07C1  2FC3               	goto	u2451
  4195     07C2  2FC4               	goto	u2450
  4196     07C3                     u2451:
  4197     07C3  2FCC               	goto	l521
  4198     07C4                     u2450:
  4199     07C4                     l2070:
  4200     07C4  3000               	movlw	0
  4201     07C5  00F5               	movwf	___fleq@ff1+3
  4202     07C6  3000               	movlw	0
  4203     07C7  00F4               	movwf	___fleq@ff1+2
  4204     07C8  3000               	movlw	0
  4205     07C9  00F3               	movwf	___fleq@ff1+1
  4206     07CA  3000               	movlw	0
  4207     07CB  00F2               	movwf	___fleq@ff1
  4208     07CC                     l521:
  4209     07CC  3000               	movlw	0
  4210     07CD  0576               	andwf	___fleq@ff2,w
  4211     07CE  00A0               	movwf	??___fleq
  4212     07CF  3000               	movlw	0
  4213     07D0  0577               	andwf	___fleq@ff2+1,w
  4214     07D1  00A1               	movwf	??___fleq+1
  4215     07D2  3080               	movlw	128
  4216     07D3  0578               	andwf	___fleq@ff2+2,w
  4217     07D4  00A2               	movwf	??___fleq+2
  4218     07D5  307F               	movlw	127
  4219     07D6  0579               	andwf	___fleq@ff2+3,w
  4220     07D7  00A3               	movwf	??___fleq+3
  4221     07D8  0823               	movf	??___fleq+3,w
  4222     07D9  0422               	iorwf	??___fleq+2,w
  4223     07DA  0421               	iorwf	??___fleq+1,w
  4224     07DB  0420               	iorwf	??___fleq,w
  4225     07DC  1D03               	skipz
  4226     07DD  2FDF               	goto	u2461
  4227     07DE  2FE0               	goto	u2460
  4228     07DF                     u2461:
  4229     07DF  2FE8               	goto	l522
  4230     07E0                     u2460:
  4231     07E0                     l2072:
  4232     07E0  3000               	movlw	0
  4233     07E1  00F9               	movwf	___fleq@ff2+3
  4234     07E2  3000               	movlw	0
  4235     07E3  00F8               	movwf	___fleq@ff2+2
  4236     07E4  3000               	movlw	0
  4237     07E5  00F7               	movwf	___fleq@ff2+1
  4238     07E6  3000               	movlw	0
  4239     07E7  00F6               	movwf	___fleq@ff2
  4240     07E8                     l522:
  4241     07E8  0879               	movf	___fleq@ff2+3,w
  4242     07E9  0675               	xorwf	___fleq@ff1+3,w
  4243     07EA  1D03               	skipz
  4244     07EB  2FF6               	goto	u2475
  4245     07EC  0878               	movf	___fleq@ff2+2,w
  4246     07ED  0674               	xorwf	___fleq@ff1+2,w
  4247     07EE  1D03               	skipz
  4248     07EF  2FF6               	goto	u2475
  4249     07F0  0877               	movf	___fleq@ff2+1,w
  4250     07F1  0673               	xorwf	___fleq@ff1+1,w
  4251     07F2  1D03               	skipz
  4252     07F3  2FF6               	goto	u2475
  4253     07F4  0876               	movf	___fleq@ff2,w
  4254     07F5  0672               	xorwf	___fleq@ff1,w
  4255     07F6                     u2475:
  4256     07F6  1903               	skipnz
  4257     07F7  2FF9               	goto	u2471
  4258     07F8  2FFA               	goto	u2470
  4259     07F9                     u2471:
  4260     07F9  2FFC               	goto	l2076
  4261     07FA                     u2470:
  4262     07FA                     l2074:
  4263     07FA  1003               	clrc
  4264     07FB  2FFD               	goto	l527
  4265     07FC                     l2076:
  4266     07FC  1403               	setc
  4267     07FD                     l527:
  4268     07FD  0008               	return
  4269     07FE                     __end_of___fleq:
  4270                           
  4271                           	psect	text11
  4272     097B                     __ptext11:	
  4273 ;; *************** function _set_PWM *****************
  4274 ;; Defined at:
  4275 ;;		line 174 in file "main.c"
  4276 ;; Parameters:    Size  Location     Type
  4277 ;;  PWM             2    2[COMMON] unsigned short 
  4278 ;; Auto vars:     Size  Location     Type
  4279 ;;		None
  4280 ;; Return value:  Size  Location     Type
  4281 ;;                  1    wreg      void 
  4282 ;; Registers used:
  4283 ;;		wreg, status,2, status,0
  4284 ;; Tracked objects:
  4285 ;;		On entry : 0/0
  4286 ;;		On exit  : 0/0
  4287 ;;		Unchanged: 0/0
  4288 ;; Data sizes:     COMMON   BANK0   BANK1   BANK2   BANK3   BANK4   BANK5   BANK6
  4289 ;;      Params:         2       0       0       0       0       0       0       0
  4290 ;;      Locals:         0       0       0       0       0       0       0       0
  4291 ;;      Temps:          2       0       0       0       0       0       0       0
  4292 ;;      Totals:         4       0       0       0       0       0       0       0
  4293 ;;Total ram usage:        4 bytes
  4294 ;; Hardware stack levels used: 1
  4295 ;; Hardware stack levels required when called: 3
  4296 ;; This function calls:
  4297 ;;		Nothing
  4298 ;; This function is called by:
  4299 ;;		_main
  4300 ;; This function uses a non-reentrant model
  4301 ;;
  4302                           
  4303     097B                     _set_PWM:	
  4304                           ;psect for function _set_PWM
  4305                           
  4306     097B                     l2524:	
  4307                           ;incstack = 0
  4308                           ; Regs used in _set_PWM: [wreg+status,2+status,0]
  4309                           
  4310                           
  4311                           ;main.c: 175:     PWM5DCL = PWM & 0xFFFC;
  4312     097B  0872               	movf	set_PWM@PWM,w
  4313     097C  39FC               	andlw	252
  4314     097D  002C               	movlb	12	; select bank12
  4315     097E  0097               	movwf	23	;volatile
  4316     097F                     l2526:
  4317                           
  4318                           ;main.c: 176:     PWM5DCH = PWM>>2;
  4319     097F  0873               	movf	set_PWM@PWM+1,w
  4320     0980  00F5               	movwf	??_set_PWM+1
  4321     0981  0872               	movf	set_PWM@PWM,w
  4322     0982  00F4               	movwf	??_set_PWM
  4323     0983  36F5               	lsrf	??_set_PWM+1,f
  4324     0984  0CF4               	rrf	??_set_PWM,f
  4325     0985  36F5               	lsrf	??_set_PWM+1,f
  4326     0986  0CF4               	rrf	??_set_PWM,f
  4327     0987  0874               	movf	??_set_PWM,w
  4328     0988  0098               	movwf	24	;volatile
  4329     0989                     l161:
  4330     0989  0008               	return
  4331     098A                     __end_of_set_PWM:
  4332                           
  4333                           	psect	text12
  4334     09A3                     __ptext12:	
  4335 ;; *************** function _read_TC *****************
  4336 ;; Defined at:
  4337 ;;		line 151 in file "main.c"
  4338 ;; Parameters:    Size  Location     Type
  4339 ;;		None
  4340 ;; Auto vars:     Size  Location     Type
  4341 ;;  DAT_BUFFER      2    6[COMMON] unsigned short 
  4342 ;; Return value:  Size  Location     Type
  4343 ;;                  2    2[COMMON] unsigned short 
  4344 ;; Registers used:
  4345 ;;		wreg, status,2, pclath, cstack
  4346 ;; Tracked objects:
  4347 ;;		On entry : 0/0
  4348 ;;		On exit  : 0/0
  4349 ;;		Unchanged: 0/0
  4350 ;; Data sizes:     COMMON   BANK0   BANK1   BANK2   BANK3   BANK4   BANK5   BANK6
  4351 ;;      Params:         2       0       0       0       0       0       0       0
  4352 ;;      Locals:         2       0       0       0       0       0       0       0
  4353 ;;      Temps:          2       0       0       0       0       0       0       0
  4354 ;;      Totals:         6       0       0       0       0       0       0       0
  4355 ;;Total ram usage:        6 bytes
  4356 ;; Hardware stack levels used: 1
  4357 ;; Hardware stack levels required when called: 4
  4358 ;; This function calls:
  4359 ;;		_SPI_read
  4360 ;; This function is called by:
  4361 ;;		_main
  4362 ;; This function uses a non-reentrant model
  4363 ;;
  4364                           
  4365     09A3                     _read_TC:	
  4366                           ;psect for function _read_TC
  4367                           
  4368     09A3                     l2490:	
  4369                           ;incstack = 0
  4370                           ; Regs used in _read_TC: [wreg+status,2+pclath+cstack]
  4371                           
  4372     09A3                     l2492:
  4373                           
  4374                           ;main.c: 154:     LATBbits.LATB5 = 0;
  4375     09A3  0022               	movlb	2	; select bank2
  4376     09A4  128D               	bcf	13,5	;volatile
  4377     09A5                     l2494:
  4378                           
  4379                           ;main.c: 155:     DAT_BUFFER = SPI_read();
  4380     09A5  3189  216A  3189   	fcall	_SPI_read
  4381     09A8  00F4               	movwf	??_read_TC
  4382     09A9  01F5               	clrf	??_read_TC+1
  4383     09AA  0874               	movf	??_read_TC,w
  4384     09AB  00F6               	movwf	read_TC@DAT_BUFFER
  4385     09AC  0875               	movf	??_read_TC+1,w
  4386     09AD  00F7               	movwf	read_TC@DAT_BUFFER+1
  4387     09AE                     l2496:
  4388                           
  4389                           ;main.c: 156:     DAT_BUFFER <<= 8;
  4390     09AE  3008               	movlw	8
  4391     09AF                     u3345:
  4392     09AF  35F6               	lslf	read_TC@DAT_BUFFER,f
  4393     09B0  0DF7               	rlf	read_TC@DAT_BUFFER+1,f
  4394     09B1  0B89               	decfsz	9,f
  4395     09B2  29AF               	goto	u3345
  4396     09B3                     l2498:
  4397                           
  4398                           ;main.c: 157:     DAT_BUFFER |= SPI_read();
  4399     09B3  3189  216A  3189   	fcall	_SPI_read
  4400     09B6  00F4               	movwf	??_read_TC
  4401     09B7  01F5               	clrf	??_read_TC+1
  4402     09B8  0874               	movf	??_read_TC,w
  4403     09B9  04F6               	iorwf	read_TC@DAT_BUFFER,f
  4404     09BA  0875               	movf	??_read_TC+1,w
  4405     09BB  04F7               	iorwf	read_TC@DAT_BUFFER+1,f
  4406     09BC                     l2500:
  4407                           
  4408                           ;main.c: 158:     LATBbits.LATB5 = 1;
  4409     09BC  0022               	movlb	2	; select bank2
  4410     09BD  168D               	bsf	13,5	;volatile
  4411     09BE                     l2502:
  4412                           
  4413                           ;main.c: 160:     return DAT_BUFFER;
  4414     09BE  0877               	movf	read_TC@DAT_BUFFER+1,w
  4415     09BF  00F3               	movwf	?_read_TC+1
  4416     09C0  0876               	movf	read_TC@DAT_BUFFER,w
  4417     09C1  00F2               	movwf	?_read_TC
  4418     09C2                     l153:
  4419     09C2  0008               	return
  4420     09C3                     __end_of_read_TC:
  4421                           
  4422                           	psect	text13
  4423     096A                     __ptext13:	
  4424 ;; *************** function _SPI_read *****************
  4425 ;; Defined at:
  4426 ;;		line 98 in file "main.c"
  4427 ;; Parameters:    Size  Location     Type
  4428 ;;		None
  4429 ;; Auto vars:     Size  Location     Type
  4430 ;;		None
  4431 ;; Return value:  Size  Location     Type
  4432 ;;                  1    wreg      unsigned char 
  4433 ;; Registers used:
  4434 ;;		wreg, status,2
  4435 ;; Tracked objects:
  4436 ;;		On entry : 0/0
  4437 ;;		On exit  : 0/0
  4438 ;;		Unchanged: 0/0
  4439 ;; Data sizes:     COMMON   BANK0   BANK1   BANK2   BANK3   BANK4   BANK5   BANK6
  4440 ;;      Params:         0       0       0       0       0       0       0       0
  4441 ;;      Locals:         0       0       0       0       0       0       0       0
  4442 ;;      Temps:          0       0       0       0       0       0       0       0
  4443 ;;      Totals:         0       0       0       0       0       0       0       0
  4444 ;;Total ram usage:        0 bytes
  4445 ;; Hardware stack levels used: 1
  4446 ;; Hardware stack levels required when called: 3
  4447 ;; This function calls:
  4448 ;;		Nothing
  4449 ;; This function is called by:
  4450 ;;		_read_TC
  4451 ;; This function uses a non-reentrant model
  4452 ;;
  4453                           
  4454     096A                     _SPI_read:	
  4455                           ;psect for function _SPI_read
  4456                           
  4457     096A                     l1978:	
  4458                           ;incstack = 0
  4459                           ; Regs used in _SPI_read: [wreg+status,2]
  4460                           
  4461                           
  4462                           ;main.c: 99:     SSP1BUF = 0;
  4463     096A  0024               	movlb	4	; select bank4
  4464     096B  0191               	clrf	17	;volatile
  4465     096C                     l123:	
  4466                           ;main.c: 100:     while(!SSP1STATbits.BF);
  4467                           
  4468     096C  1C14               	btfss	20,0	;volatile
  4469     096D  296F               	goto	u2241
  4470     096E  2970               	goto	u2240
  4471     096F                     u2241:
  4472     096F  296C               	goto	l123
  4473     0970                     u2240:
  4474     0970                     l1980:
  4475                           
  4476                           ;main.c: 102:     return SSP1BUF;
  4477     0970  0811               	movf	17,w	;volatile
  4478     0971                     l126:
  4479     0971  0008               	return
  4480     0972                     __end_of_SPI_read:
  4481                           
  4482                           	psect	text14
  4483     0AF6                     __ptext14:	
  4484 ;; *************** function _init *****************
  4485 ;; Defined at:
  4486 ;;		line 232 in file "main.c"
  4487 ;; Parameters:    Size  Location     Type
  4488 ;;		None
  4489 ;; Auto vars:     Size  Location     Type
  4490 ;;		None
  4491 ;; Return value:  Size  Location     Type
  4492 ;;                  1    wreg      void 
  4493 ;; Registers used:
  4494 ;;		wreg, status,2, status,0
  4495 ;; Tracked objects:
  4496 ;;		On entry : 0/0
  4497 ;;		On exit  : 0/0
  4498 ;;		Unchanged: 0/0
  4499 ;; Data sizes:     COMMON   BANK0   BANK1   BANK2   BANK3   BANK4   BANK5   BANK6
  4500 ;;      Params:         0       0       0       0       0       0       0       0
  4501 ;;      Locals:         0       0       0       0       0       0       0       0
  4502 ;;      Temps:          0       0       0       0       0       0       0       0
  4503 ;;      Totals:         0       0       0       0       0       0       0       0
  4504 ;;Total ram usage:        0 bytes
  4505 ;; Hardware stack levels used: 1
  4506 ;; Hardware stack levels required when called: 3
  4507 ;; This function calls:
  4508 ;;		Nothing
  4509 ;; This function is called by:
  4510 ;;		_main
  4511 ;; This function uses a non-reentrant model
  4512 ;;
  4513                           
  4514     0AF6                     _init:	
  4515                           ;psect for function _init
  4516                           
  4517     0AF6                     l2566:	
  4518                           ;incstack = 0
  4519                           ; Regs used in _init: [wreg+status,2+status,0]
  4520                           
  4521                           
  4522                           ;main.c: 234:     OSCCON1 = 0x60;
  4523     0AF6  3060               	movlw	96
  4524     0AF7  0032               	movlb	18	; select bank18
  4525     0AF8  0099               	movwf	25	;volatile
  4526                           
  4527                           ;main.c: 235:     OSCFRQ = 0x06;
  4528     0AF9  3006               	movlw	6
  4529     0AFA  009F               	movwf	31	;volatile
  4530     0AFB                     l2568:
  4531                           
  4532                           ;main.c: 237:     TRISA = 0;
  4533     0AFB  0021               	movlb	1	; select bank1
  4534     0AFC  018C               	clrf	12	;volatile
  4535     0AFD                     l2570:
  4536                           
  4537                           ;main.c: 238:     TRISB = 0;
  4538     0AFD  018D               	clrf	13	;volatile
  4539     0AFE                     l2572:
  4540                           
  4541                           ;main.c: 239:     TRISC = 0;
  4542     0AFE  018E               	clrf	14	;volatile
  4543     0AFF                     l2574:
  4544                           
  4545                           ;main.c: 243:     TRISBbits.TRISB5 = 0;
  4546     0AFF  128D               	bcf	13,5	;volatile
  4547     0B00                     l2576:
  4548                           
  4549                           ;main.c: 244:     TRISCbits.TRISC5 = 0;
  4550     0B00  128E               	bcf	14,5	;volatile
  4551     0B01                     l2578:
  4552                           
  4553                           ;main.c: 245:     TRISCbits.TRISC3 = 0;
  4554     0B01  118E               	bcf	14,3	;volatile
  4555     0B02                     l2580:
  4556                           
  4557                           ;main.c: 246:     TRISBbits.TRISB7 = 0;
  4558     0B02  138D               	bcf	13,7	;volatile
  4559     0B03                     l2582:
  4560                           
  4561                           ;main.c: 247:     TRISCbits.TRISC6 = 0;
  4562     0B03  130E               	bcf	14,6	;volatile
  4563     0B04                     l2584:
  4564                           
  4565                           ;main.c: 249:     TRISCbits.TRISC0 = 0;
  4566     0B04  100E               	bcf	14,0	;volatile
  4567     0B05                     l2586:
  4568                           
  4569                           ;main.c: 250:     TRISBbits.TRISB6 = 1;
  4570     0B05  170D               	bsf	13,6	;volatile
  4571     0B06                     l2588:
  4572                           
  4573                           ;main.c: 251:     TRISAbits.TRISA4 = 0;
  4574     0B06  120C               	bcf	12,4	;volatile
  4575     0B07                     l2590:
  4576                           
  4577                           ;main.c: 254:     LATA = 0;
  4578     0B07  0022               	movlb	2	; select bank2
  4579     0B08  018C               	clrf	12	;volatile
  4580     0B09                     l2592:
  4581                           
  4582                           ;main.c: 255:     LATB = 0;
  4583     0B09  018D               	clrf	13	;volatile
  4584     0B0A                     l2594:
  4585                           
  4586                           ;main.c: 256:     LATC = 0;
  4587     0B0A  018E               	clrf	14	;volatile
  4588     0B0B                     l2596:
  4589                           
  4590                           ;main.c: 258:     ANSELA = 0;
  4591     0B0B  0023               	movlb	3	; select bank3
  4592     0B0C  018C               	clrf	12	;volatile
  4593     0B0D                     l2598:
  4594                           
  4595                           ;main.c: 259:     ANSELB = 0;
  4596     0B0D  018D               	clrf	13	;volatile
  4597     0B0E                     l2600:
  4598                           
  4599                           ;main.c: 260:     ANSELC = 0;
  4600     0B0E  018E               	clrf	14	;volatile
  4601     0B0F                     l2602:
  4602                           
  4603                           ;main.c: 264:     T0CON0bits.T016BIT = 0;
  4604     0B0F  0020               	movlb	0	; select bank0
  4605     0B10  1217               	bcf	23,4	;volatile
  4606     0B11                     l2604:
  4607                           
  4608                           ;main.c: 265:     T0CON0bits.T0OUTPS = 0xF;
  4609     0B11  300F               	movlw	15
  4610     0B12  0497               	iorwf	23,f	;volatile
  4611     0B13                     l2606:
  4612                           
  4613                           ;main.c: 267:     T0CON1bits.T0CS = 0x2;
  4614     0B13  0818               	movf	24,w	;volatile
  4615     0B14  391F               	andlw	-225
  4616     0B15  3840               	iorlw	64
  4617     0B16  0098               	movwf	24	;volatile
  4618     0B17                     l2608:
  4619                           
  4620                           ;main.c: 268:     T0CON1bits.T0ASYNC = 0;
  4621     0B17  1218               	bcf	24,4	;volatile
  4622     0B18                     l2610:
  4623                           
  4624                           ;main.c: 269:     T0CON1bits.T0CKPS = 0x7;
  4625     0B18  0818               	movf	24,w	;volatile
  4626     0B19  39F0               	andlw	-16
  4627     0B1A  3807               	iorlw	7
  4628     0B1B  0098               	movwf	24	;volatile
  4629     0B1C                     l2612:
  4630                           
  4631                           ;main.c: 271:     T0CON0bits.T0EN = 1;
  4632     0B1C  1797               	bsf	23,7	;volatile
  4633     0B1D                     l2614:
  4634                           
  4635                           ;main.c: 275:     T4CONbits.T4OUTPS = 0x7;
  4636     0B1D  0028               	movlb	8	; select bank8
  4637     0B1E  0817               	movf	23,w	;volatile
  4638     0B1F  3987               	andlw	-121
  4639     0B20  3838               	iorlw	56
  4640     0B21  0097               	movwf	23	;volatile
  4641     0B22                     l2616:
  4642                           
  4643                           ;main.c: 276:     T4CONbits.T4CKPS = 0x2;
  4644     0B22  0817               	movf	23,w	;volatile
  4645     0B23  39FC               	andlw	-4
  4646     0B24  3802               	iorlw	2
  4647     0B25  0097               	movwf	23	;volatile
  4648     0B26                     l2618:
  4649                           
  4650                           ;main.c: 277:     PR4 = 0xFF;
  4651     0B26  30FF               	movlw	255
  4652     0B27  0096               	movwf	22	;volatile
  4653     0B28                     l2620:
  4654                           
  4655                           ;main.c: 278:     T4CONbits.TMR4ON = 1;
  4656     0B28  1517               	bsf	23,2	;volatile
  4657     0B29                     l2622:
  4658                           
  4659                           ;main.c: 281:     TRISAbits.TRISA5 = 1;
  4660     0B29  0021               	movlb	1	; select bank1
  4661     0B2A  168C               	bsf	12,5	;volatile
  4662     0B2B                     l2624:
  4663                           
  4664                           ;main.c: 282:     PWM5CONbits.PWM5POL = 0;
  4665     0B2B  002C               	movlb	12	; select bank12
  4666     0B2C  1219               	bcf	25,4	;volatile
  4667     0B2D                     l2626:
  4668                           
  4669                           ;main.c: 283:     PR2 = 0xFF;
  4670     0B2D  30FF               	movlw	255
  4671     0B2E  0020               	movlb	0	; select bank0
  4672     0B2F  009E               	movwf	30	;volatile
  4673     0B30                     l2628:
  4674                           
  4675                           ;main.c: 284:     PWM5DCH = 0x80;
  4676     0B30  3080               	movlw	128
  4677     0B31  002C               	movlb	12	; select bank12
  4678     0B32  0098               	movwf	24	;volatile
  4679     0B33                     l2630:
  4680                           
  4681                           ;main.c: 285:     PWM5DCL = 0x00;
  4682     0B33  0197               	clrf	23	;volatile
  4683     0B34                     l2632:
  4684                           
  4685                           ;main.c: 287:     PIR1bits.TMR2IF = 0;
  4686     0B34  0020               	movlb	0	; select bank0
  4687     0B35  1091               	bcf	17,1	;volatile
  4688                           
  4689                           ;main.c: 288:     T2CONbits.T2OUTPS = 0;
  4690     0B36  3087               	movlw	-121
  4691     0B37  059F               	andwf	31,f	;volatile
  4692                           
  4693                           ;main.c: 289:     T2CONbits.T2CKPS = 0;
  4694     0B38  30FC               	movlw	-4
  4695     0B39  059F               	andwf	31,f	;volatile
  4696     0B3A                     l2634:
  4697                           
  4698                           ;main.c: 290:     T2CONbits.TMR2ON = 1;
  4699     0B3A  151F               	bsf	31,2	;volatile
  4700     0B3B                     l182:	
  4701                           ;main.c: 292:     while(!PIR1bits.TMR2IF);
  4702                           
  4703     0B3B  1C91               	btfss	17,1	;volatile
  4704     0B3C  2B3E               	goto	u3451
  4705     0B3D  2B3F               	goto	u3450
  4706     0B3E                     u3451:
  4707     0B3E  2B3B               	goto	l182
  4708     0B3F                     u3450:
  4709     0B3F                     l184:
  4710                           
  4711                           ;main.c: 293:     PIR1bits.TMR2IF = 0;
  4712     0B3F  1091               	bcf	17,1	;volatile
  4713                           
  4714                           ;main.c: 295:     TRISAbits.TRISA5 = 0;
  4715     0B40  0021               	movlb	1	; select bank1
  4716     0B41  128C               	bcf	12,5	;volatile
  4717     0B42                     l2636:
  4718                           
  4719                           ;main.c: 296:     RC7PPS = 0x02;
  4720     0B42  3002               	movlw	2
  4721     0B43  003D               	movlb	29	; select bank29
  4722     0B44  00A7               	movwf	39	;volatile
  4723     0B45                     l2638:
  4724                           
  4725                           ;main.c: 297:     PWM5CONbits.PWM5EN = 1;
  4726     0B45  002C               	movlb	12	; select bank12
  4727     0B46  1799               	bsf	25,7	;volatile
  4728     0B47                     l2640:
  4729                           
  4730                           ;main.c: 300:     TX1STAbits.CSRC = 1;
  4731     0B47  0023               	movlb	3	; select bank3
  4732     0B48  179E               	bsf	30,7	;volatile
  4733     0B49                     l2642:
  4734                           
  4735                           ;main.c: 301:     TX1STAbits.TX9 = 0;
  4736     0B49  131E               	bcf	30,6	;volatile
  4737     0B4A                     l2644:
  4738                           
  4739                           ;main.c: 302:     TX1STAbits.SYNC = 0;
  4740     0B4A  121E               	bcf	30,4	;volatile
  4741     0B4B                     l2646:
  4742                           
  4743                           ;main.c: 303:     TX1STAbits.SENDB = 0;
  4744     0B4B  119E               	bcf	30,3	;volatile
  4745     0B4C                     l2648:
  4746                           
  4747                           ;main.c: 304:     TX1STAbits.BRGH = 0;
  4748     0B4C  111E               	bcf	30,2	;volatile
  4749     0B4D                     l2650:
  4750                           
  4751                           ;main.c: 306:  RC1STAbits.SPEN = 1;
  4752     0B4D  179D               	bsf	29,7	;volatile
  4753     0B4E                     l2652:
  4754                           
  4755                           ;main.c: 307:     BAUD1CONbits.SCKP = 0;
  4756     0B4E  121F               	bcf	31,4	;volatile
  4757                           
  4758                           ;main.c: 309:  SP1BRGL = 25;
  4759     0B4F  3019               	movlw	25
  4760     0B50  009B               	movwf	27	;volatile
  4761                           
  4762                           ;main.c: 311:     RC0PPS = 0x14;
  4763     0B51  3014               	movlw	20
  4764     0B52  003D               	movlb	29	; select bank29
  4765     0B53  00A0               	movwf	32	;volatile
  4766     0B54                     l2654:
  4767                           
  4768                           ;main.c: 313:     TX1STAbits.TXEN = 1;
  4769     0B54  0023               	movlb	3	; select bank3
  4770     0B55  169E               	bsf	30,5	;volatile
  4771     0B56                     l2656:
  4772                           
  4773                           ;main.c: 316:     SSP1CON1bits.CKP = 0;
  4774     0B56  0024               	movlb	4	; select bank4
  4775     0B57  1215               	bcf	21,4	;volatile
  4776     0B58                     l2658:
  4777                           
  4778                           ;main.c: 317:     SSP1CON1bits.SSPM = 0;
  4779     0B58  30F0               	movlw	-16
  4780     0B59  0595               	andwf	21,f	;volatile
  4781     0B5A                     l2660:
  4782                           
  4783                           ;main.c: 319:     SSP1STATbits.SMP = 1;
  4784     0B5A  1794               	bsf	20,7	;volatile
  4785     0B5B                     l2662:
  4786                           
  4787                           ;main.c: 320:     SSP1STATbits.CKE = 1;
  4788     0B5B  1714               	bsf	20,6	;volatile
  4789     0B5C                     l2664:
  4790                           
  4791                           ;main.c: 322:     RA4PPS = 0x18;
  4792     0B5C  3018               	movlw	24
  4793     0B5D  003D               	movlb	29	; select bank29
  4794     0B5E  0094               	movwf	20	;volatile
  4795     0B5F                     l2666:
  4796                           
  4797                           ;main.c: 323:     RC4PPS = 0x19;
  4798     0B5F  3019               	movlw	25
  4799     0B60  00A4               	movwf	36	;volatile
  4800     0B61                     l2668:
  4801                           
  4802                           ;main.c: 324:     SSP1DATPPS = 0x0E;
  4803     0B61  300E               	movlw	14
  4804     0B62  003C               	movlb	28	; select bank28
  4805     0B63  00A1               	movwf	33	;volatile
  4806     0B64                     l2670:
  4807                           
  4808                           ;main.c: 326:     SSP1CON1bits.SSPEN = 1;
  4809     0B64  0024               	movlb	4	; select bank4
  4810     0B65  1695               	bsf	21,5	;volatile
  4811     0B66                     l2672:
  4812                           
  4813                           ;main.c: 329:     PIE0bits.TMR0IE = 1;
  4814     0B66  0021               	movlb	1	; select bank1
  4815     0B67  1690               	bsf	16,5	;volatile
  4816     0B68                     l2674:
  4817                           
  4818                           ;main.c: 330:     PIE2bits.TMR4IE = 1;
  4819     0B68  1492               	bsf	18,1	;volatile
  4820     0B69                     l2676:
  4821                           
  4822                           ;main.c: 331:     INTCONbits.PEIE = 1;
  4823     0B69  170B               	bsf	11,6	;volatile
  4824     0B6A                     l2678:
  4825                           
  4826                           ;main.c: 332:     INTCONbits.GIE = 1;
  4827     0B6A  178B               	bsf	11,7	;volatile
  4828     0B6B                     l185:
  4829     0B6B  0008               	return
  4830     0B6C                     __end_of_init:
  4831                           
  4832                           	psect	text15
  4833     0700                     __ptext15:	
  4834 ;; *************** function _get_avg_temp *****************
  4835 ;; Defined at:
  4836 ;;		line 163 in file "main.c"
  4837 ;; Parameters:    Size  Location     Type
  4838 ;;		None
  4839 ;; Auto vars:     Size  Location     Type
  4840 ;;  sum             4    8[BANK1 ] float 
  4841 ;;  i               1   12[BANK1 ] unsigned char 
  4842 ;; Return value:  Size  Location     Type
  4843 ;;                  4    0[BANK1 ] float 
  4844 ;; Registers used:
  4845 ;;		wreg, fsr1l, fsr1h, status,2, status,0, pclath, cstack
  4846 ;; Tracked objects:
  4847 ;;		On entry : 0/0
  4848 ;;		On exit  : 0/0
  4849 ;;		Unchanged: 0/0
  4850 ;; Data sizes:     COMMON   BANK0   BANK1   BANK2   BANK3   BANK4   BANK5   BANK6
  4851 ;;      Params:         0       0       4       0       0       0       0       0
  4852 ;;      Locals:         0       0       9       0       0       0       0       0
  4853 ;;      Temps:          0       2       0       0       0       0       0       0
  4854 ;;      Totals:         0       2      13       0       0       0       0       0
  4855 ;;Total ram usage:       15 bytes
  4856 ;; Hardware stack levels used: 1
  4857 ;; Hardware stack levels required when called: 4
  4858 ;; This function calls:
  4859 ;;		___fladd
  4860 ;;		___fldiv
  4861 ;;		___xxtofl
  4862 ;; This function is called by:
  4863 ;;		_main
  4864 ;; This function uses a non-reentrant model
  4865 ;;
  4866                           
  4867     0700                     _get_avg_temp:	
  4868                           ;psect for function _get_avg_temp
  4869                           
  4870     0700                     l2998:	
  4871                           ;incstack = 0
  4872                           ; Regs used in _get_avg_temp: [wreg+fsr1l+fsr1h+status,2+status,0+pclath+cstack]
  4873                           
  4874                           
  4875                           ;main.c: 164:     float sum = 0;
  4876     0700  3000               	movlw	0
  4877     0701  0021               	movlb	1	; select bank1
  4878     0702  00AB               	movwf	(get_avg_temp@sum+3)^(0+128)
  4879     0703  3000               	movlw	0
  4880     0704  00AA               	movwf	(get_avg_temp@sum+2)^(0+128)
  4881     0705  3000               	movlw	0
  4882     0706  00A9               	movwf	(get_avg_temp@sum+1)^(0+128)
  4883     0707  3000               	movlw	0
  4884     0708  00A8               	movwf	get_avg_temp@sum^(0+128)
  4885     0709                     l3000:
  4886                           
  4887                           ;main.c: 166:     uint8_t i;;main.c: 167:     for (i=0; i<20; i++) {
  4888     0709  01AC               	clrf	get_avg_temp@i^(0+128)
  4889     070A                     l3006:
  4890                           
  4891                           ;main.c: 168:         sum += temp_buffer[i];
  4892     070A  352C               	lslf	get_avg_temp@i^(0+128),w
  4893     070B  3E20               	addlw	(low (_temp_buffer| (0+256)))& (0+255)
  4894     070C  0086               	movwf	6
  4895     070D  3001               	movlw	1	; select bank2/3
  4896     070E  0087               	movwf	7
  4897     070F  3F40               	moviw [0]fsr1
  4898     0710  0020               	movlb	0	; select bank0
  4899     0711  00ED               	movwf	??_get_avg_temp
  4900     0712  3F41               	moviw [1]fsr1
  4901     0713  00EE               	movwf	??_get_avg_temp+1
  4902     0714  086D               	movf	??_get_avg_temp,w
  4903     0715  00F2               	movwf	___xxtofl@val
  4904     0716  086E               	movf	??_get_avg_temp+1,w
  4905     0717  00F3               	movwf	___xxtofl@val+1
  4906     0718  01F4               	clrf	___xxtofl@val+2
  4907     0719  01F5               	clrf	___xxtofl@val+3
  4908     071A  3000               	movlw	0
  4909     071B  318D  25AB  3187   	fcall	___xxtofl
  4910     071E  0875               	movf	?___xxtofl+3,w
  4911     071F  0020               	movlb	0	; select bank0
  4912     0720  00DC               	movwf	___fladd@b+3
  4913     0721  0874               	movf	?___xxtofl+2,w
  4914     0722  00DB               	movwf	___fladd@b+2
  4915     0723  0873               	movf	?___xxtofl+1,w
  4916     0724  00DA               	movwf	___fladd@b+1
  4917     0725  0872               	movf	?___xxtofl,w
  4918     0726  00D9               	movwf	___fladd@b
  4919     0727  0021               	movlb	1	; select bank1
  4920     0728  082B               	movf	(get_avg_temp@sum+3)^(0+128),w
  4921     0729  0020               	movlb	0	; select bank0
  4922     072A  00E0               	movwf	___fladd@a+3
  4923     072B  0021               	movlb	1	; select bank1
  4924     072C  082A               	movf	(get_avg_temp@sum+2)^(0+128),w
  4925     072D  0020               	movlb	0	; select bank0
  4926     072E  00DF               	movwf	___fladd@a+2
  4927     072F  0021               	movlb	1	; select bank1
  4928     0730  0829               	movf	(get_avg_temp@sum+1)^(0+128),w
  4929     0731  0020               	movlb	0	; select bank0
  4930     0732  00DE               	movwf	___fladd@a+1
  4931     0733  0021               	movlb	1	; select bank1
  4932     0734  0828               	movf	get_avg_temp@sum^(0+128),w
  4933     0735  0020               	movlb	0	; select bank0
  4934     0736  00DD               	movwf	___fladd@a
  4935     0737  3184  24F8  3187   	fcall	___fladd
  4936     073A  0020               	movlb	0	; select bank0
  4937     073B  085C               	movf	?___fladd+3,w
  4938     073C  0021               	movlb	1	; select bank1
  4939     073D  00AB               	movwf	(get_avg_temp@sum+3)^(0+128)
  4940     073E  0020               	movlb	0	; select bank0
  4941     073F  085B               	movf	?___fladd+2,w
  4942     0740  0021               	movlb	1	; select bank1
  4943     0741  00AA               	movwf	(get_avg_temp@sum+2)^(0+128)
  4944     0742  0020               	movlb	0	; select bank0
  4945     0743  085A               	movf	?___fladd+1,w
  4946     0744  0021               	movlb	1	; select bank1
  4947     0745  00A9               	movwf	(get_avg_temp@sum+1)^(0+128)
  4948     0746  0020               	movlb	0	; select bank0
  4949     0747  0859               	movf	?___fladd,w
  4950     0748  0021               	movlb	1	; select bank1
  4951     0749  00A8               	movwf	get_avg_temp@sum^(0+128)
  4952     074A                     l3008:
  4953                           
  4954                           ;main.c: 169:     }
  4955     074A  3001               	movlw	1
  4956     074B  0020               	movlb	0	; select bank0
  4957     074C  00ED               	movwf	??_get_avg_temp
  4958     074D  086D               	movf	??_get_avg_temp,w
  4959     074E  0021               	movlb	1	; select bank1
  4960     074F  07AC               	addwf	get_avg_temp@i^(0+128),f
  4961     0750                     l3010:
  4962     0750  3014               	movlw	20
  4963     0751  022C               	subwf	get_avg_temp@i^(0+128),w
  4964     0752  1C03               	skipc
  4965     0753  2F55               	goto	u4091
  4966     0754  2F56               	goto	u4090
  4967     0755                     u4091:
  4968     0755  2F0A               	goto	l3006
  4969     0756                     u4090:
  4970     0756                     l3012:
  4971                           
  4972                           ;main.c: 171:     return sum/20/16;
  4973     0756  3041               	movlw	65
  4974     0757  0020               	movlb	0	; select bank0
  4975     0758  00C2               	movwf	___fldiv@a+3
  4976     0759  30A0               	movlw	160
  4977     075A  00C1               	movwf	___fldiv@a+2
  4978     075B  3000               	movlw	0
  4979     075C  00C0               	movwf	___fldiv@a+1
  4980     075D  3000               	movlw	0
  4981     075E  00BF               	movwf	___fldiv@a
  4982     075F  0021               	movlb	1	; select bank1
  4983     0760  082B               	movf	(get_avg_temp@sum+3)^(0+128),w
  4984     0761  0020               	movlb	0	; select bank0
  4985     0762  00C6               	movwf	___fldiv@b+3
  4986     0763  0021               	movlb	1	; select bank1
  4987     0764  082A               	movf	(get_avg_temp@sum+2)^(0+128),w
  4988     0765  0020               	movlb	0	; select bank0
  4989     0766  00C5               	movwf	___fldiv@b+2
  4990     0767  0021               	movlb	1	; select bank1
  4991     0768  0829               	movf	(get_avg_temp@sum+1)^(0+128),w
  4992     0769  0020               	movlb	0	; select bank0
  4993     076A  00C4               	movwf	___fldiv@b+1
  4994     076B  0021               	movlb	1	; select bank1
  4995     076C  0828               	movf	get_avg_temp@sum^(0+128),w
  4996     076D  0020               	movlb	0	; select bank0
  4997     076E  00C3               	movwf	___fldiv@b
  4998     076F  318E  2656  3187   	fcall	___fldiv
  4999     0772  0020               	movlb	0	; select bank0
  5000     0773  0842               	movf	?___fldiv+3,w
  5001     0774  0021               	movlb	1	; select bank1
  5002     0775  00A7               	movwf	(_get_avg_temp$1279+3)^(0+128)
  5003     0776  0020               	movlb	0	; select bank0
  5004     0777  0841               	movf	?___fldiv+2,w
  5005     0778  0021               	movlb	1	; select bank1
  5006     0779  00A6               	movwf	(_get_avg_temp$1279+2)^(0+128)
  5007     077A  0020               	movlb	0	; select bank0
  5008     077B  0840               	movf	?___fldiv+1,w
  5009     077C  0021               	movlb	1	; select bank1
  5010     077D  00A5               	movwf	(_get_avg_temp$1279+1)^(0+128)
  5011     077E  0020               	movlb	0	; select bank0
  5012     077F  083F               	movf	?___fldiv,w
  5013     0780  0021               	movlb	1	; select bank1
  5014     0781  00A4               	movwf	_get_avg_temp$1279^(0+128)
  5015                           
  5016                           ;main.c: 171:     return sum/20/16;
  5017     0782  3041               	movlw	65
  5018     0783  0020               	movlb	0	; select bank0
  5019     0784  00C2               	movwf	___fldiv@a+3
  5020     0785  3080               	movlw	128
  5021     0786  00C1               	movwf	___fldiv@a+2
  5022     0787  3000               	movlw	0
  5023     0788  00C0               	movwf	___fldiv@a+1
  5024     0789  3000               	movlw	0
  5025     078A  00BF               	movwf	___fldiv@a
  5026     078B  0021               	movlb	1	; select bank1
  5027     078C  0827               	movf	(_get_avg_temp$1279+3)^(0+128),w
  5028     078D  0020               	movlb	0	; select bank0
  5029     078E  00C6               	movwf	___fldiv@b+3
  5030     078F  0021               	movlb	1	; select bank1
  5031     0790  0826               	movf	(_get_avg_temp$1279+2)^(0+128),w
  5032     0791  0020               	movlb	0	; select bank0
  5033     0792  00C5               	movwf	___fldiv@b+2
  5034     0793  0021               	movlb	1	; select bank1
  5035     0794  0825               	movf	(_get_avg_temp$1279+1)^(0+128),w
  5036     0795  0020               	movlb	0	; select bank0
  5037     0796  00C4               	movwf	___fldiv@b+1
  5038     0797  0021               	movlb	1	; select bank1
  5039     0798  0824               	movf	_get_avg_temp$1279^(0+128),w
  5040     0799  0020               	movlb	0	; select bank0
  5041     079A  00C3               	movwf	___fldiv@b
  5042     079B  318E  2656  3187   	fcall	___fldiv
  5043     079E  0020               	movlb	0	; select bank0
  5044     079F  0842               	movf	?___fldiv+3,w
  5045     07A0  0021               	movlb	1	; select bank1
  5046     07A1  00A3               	movwf	(?_get_avg_temp+3)^(0+128)
  5047     07A2  0020               	movlb	0	; select bank0
  5048     07A3  0841               	movf	?___fldiv+2,w
  5049     07A4  0021               	movlb	1	; select bank1
  5050     07A5  00A2               	movwf	(?_get_avg_temp+2)^(0+128)
  5051     07A6  0020               	movlb	0	; select bank0
  5052     07A7  0840               	movf	?___fldiv+1,w
  5053     07A8  0021               	movlb	1	; select bank1
  5054     07A9  00A1               	movwf	(?_get_avg_temp+1)^(0+128)
  5055     07AA  0020               	movlb	0	; select bank0
  5056     07AB  083F               	movf	?___fldiv,w
  5057     07AC  0021               	movlb	1	; select bank1
  5058     07AD  00A0               	movwf	?_get_avg_temp^(0+128)
  5059     07AE                     l158:
  5060     07AE  0008               	return
  5061     07AF                     __end_of_get_avg_temp:
  5062                           
  5063                           	psect	text16
  5064     0DAB                     __ptext16:	
  5065 ;; *************** function ___xxtofl *****************
  5066 ;; Defined at:
  5067 ;;		line 10 in file "C:\Program Files\Microchip\xc8\v2.46\pic\sources\c99\common\xxtofl.c"
  5068 ;; Parameters:    Size  Location     Type
  5069 ;;  sign            1    wreg     unsigned char 
  5070 ;;  val             4    2[COMMON] long 
  5071 ;; Auto vars:     Size  Location     Type
  5072 ;;  sign            1    0[BANK0 ] unsigned char 
  5073 ;;  arg             4    2[BANK0 ] unsigned long 
  5074 ;;  exp             1    1[BANK0 ] unsigned char 
  5075 ;; Return value:  Size  Location     Type
  5076 ;;                  4    2[COMMON] unsigned char 
  5077 ;; Registers used:
  5078 ;;		wreg, status,2, status,0
  5079 ;; Tracked objects:
  5080 ;;		On entry : 0/0
  5081 ;;		On exit  : 0/0
  5082 ;;		Unchanged: 0/0
  5083 ;; Data sizes:     COMMON   BANK0   BANK1   BANK2   BANK3   BANK4   BANK5   BANK6
  5084 ;;      Params:         4       0       0       0       0       0       0       0
  5085 ;;      Locals:         0       6       0       0       0       0       0       0
  5086 ;;      Temps:          4       0       0       0       0       0       0       0
  5087 ;;      Totals:         8       6       0       0       0       0       0       0
  5088 ;;Total ram usage:       14 bytes
  5089 ;; Hardware stack levels used: 1
  5090 ;; Hardware stack levels required when called: 3
  5091 ;; This function calls:
  5092 ;;		Nothing
  5093 ;; This function is called by:
  5094 ;;		_get_avg_temp
  5095 ;;		_upd_PWM
  5096 ;; This function uses a non-reentrant model
  5097 ;;
  5098                           
  5099     0DAB                     ___xxtofl:	
  5100                           ;psect for function ___xxtofl
  5101                           
  5102                           
  5103                           ;incstack = 0
  5104                           ; Regs used in ___xxtofl: [wreg+status,2+status,0]
  5105                           ;___xxtofl@sign stored from wreg
  5106     0DAB  0020               	movlb	0	; select bank0
  5107     0DAC  00A0               	movwf	___xxtofl@sign
  5108     0DAD                     l2422:
  5109     0DAD  0820               	movf	___xxtofl@sign,w
  5110     0DAE  1903               	btfsc	3,2
  5111     0DAF  2DB1               	goto	u3181
  5112     0DB0  2DB2               	goto	u3180
  5113     0DB1                     u3181:
  5114     0DB1  2DC6               	goto	l2428
  5115     0DB2                     u3180:
  5116     0DB2                     l2424:
  5117     0DB2  1FF5               	btfss	___xxtofl@val+3,7
  5118     0DB3  2DB5               	goto	u3191
  5119     0DB4  2DB6               	goto	u3190
  5120     0DB5                     u3191:
  5121     0DB5  2DC6               	goto	l2428
  5122     0DB6                     u3190:
  5123     0DB6                     l2426:
  5124     0DB6  0972               	comf	___xxtofl@val,w
  5125     0DB7  00A2               	movwf	___xxtofl@arg
  5126     0DB8  0973               	comf	___xxtofl@val+1,w
  5127     0DB9  00A3               	movwf	___xxtofl@arg+1
  5128     0DBA  0974               	comf	___xxtofl@val+2,w
  5129     0DBB  00A4               	movwf	___xxtofl@arg+2
  5130     0DBC  0975               	comf	___xxtofl@val+3,w
  5131     0DBD  00A5               	movwf	___xxtofl@arg+3
  5132     0DBE  0AA2               	incf	___xxtofl@arg,f
  5133     0DBF  1903               	skipnz
  5134     0DC0  0AA3               	incf	___xxtofl@arg+1,f
  5135     0DC1  1903               	skipnz
  5136     0DC2  0AA4               	incf	___xxtofl@arg+2,f
  5137     0DC3  1903               	skipnz
  5138     0DC4  0AA5               	incf	___xxtofl@arg+3,f
  5139     0DC5  2DCE               	goto	l793
  5140     0DC6                     l2428:
  5141     0DC6  0875               	movf	___xxtofl@val+3,w
  5142     0DC7  00A5               	movwf	___xxtofl@arg+3
  5143     0DC8  0874               	movf	___xxtofl@val+2,w
  5144     0DC9  00A4               	movwf	___xxtofl@arg+2
  5145     0DCA  0873               	movf	___xxtofl@val+1,w
  5146     0DCB  00A3               	movwf	___xxtofl@arg+1
  5147     0DCC  0872               	movf	___xxtofl@val,w
  5148     0DCD  00A2               	movwf	___xxtofl@arg
  5149     0DCE                     l793:
  5150     0DCE  0875               	movf	___xxtofl@val+3,w
  5151     0DCF  0474               	iorwf	___xxtofl@val+2,w
  5152     0DD0  0473               	iorwf	___xxtofl@val+1,w
  5153     0DD1  0472               	iorwf	___xxtofl@val,w
  5154     0DD2  1D03               	skipz
  5155     0DD3  2DD5               	goto	u3201
  5156     0DD4  2DD6               	goto	u3200
  5157     0DD5                     u3201:
  5158     0DD5  2DDF               	goto	l2434
  5159     0DD6                     u3200:
  5160     0DD6                     l2430:
  5161     0DD6  3000               	movlw	0
  5162     0DD7  00F5               	movwf	?___xxtofl+3
  5163     0DD8  3000               	movlw	0
  5164     0DD9  00F4               	movwf	?___xxtofl+2
  5165     0DDA  3000               	movlw	0
  5166     0DDB  00F3               	movwf	?___xxtofl+1
  5167     0DDC  3000               	movlw	0
  5168     0DDD  00F2               	movwf	?___xxtofl
  5169     0DDE  2E55               	goto	l795
  5170     0DDF                     l2434:
  5171     0DDF  3096               	movlw	150
  5172     0DE0  00A1               	movwf	___xxtofl@exp
  5173     0DE1  2DED               	goto	l2438
  5174     0DE2                     l2436:
  5175     0DE2  3001               	movlw	1
  5176     0DE3  00F6               	movwf	??___xxtofl
  5177     0DE4  0876               	movf	??___xxtofl,w
  5178     0DE5  07A1               	addwf	___xxtofl@exp,f
  5179     0DE6  3001               	movlw	1
  5180     0DE7                     u3215:
  5181     0DE7  36A5               	lsrf	___xxtofl@arg+3,f
  5182     0DE8  0CA4               	rrf	___xxtofl@arg+2,f
  5183     0DE9  0CA3               	rrf	___xxtofl@arg+1,f
  5184     0DEA  0CA2               	rrf	___xxtofl@arg,f
  5185     0DEB  0B89               	decfsz	9,f
  5186     0DEC  2DE7               	goto	u3215
  5187     0DED                     l2438:
  5188     0DED  30FE               	movlw	254
  5189     0DEE  0525               	andwf	___xxtofl@arg+3,w
  5190     0DEF  1D03               	btfss	3,2
  5191     0DF0  2DF2               	goto	u3221
  5192     0DF1  2DF3               	goto	u3220
  5193     0DF2                     u3221:
  5194     0DF2  2DE2               	goto	l2436
  5195     0DF3                     u3220:
  5196     0DF3  2E07               	goto	l799
  5197     0DF4                     l2440:
  5198     0DF4  3001               	movlw	1
  5199     0DF5  00F6               	movwf	??___xxtofl
  5200     0DF6  0876               	movf	??___xxtofl,w
  5201     0DF7  07A1               	addwf	___xxtofl@exp,f
  5202     0DF8                     l2442:
  5203     0DF8  3001               	movlw	1
  5204     0DF9  07A2               	addwf	___xxtofl@arg,f
  5205     0DFA  3000               	movlw	0
  5206     0DFB  3DA3               	addwfc	___xxtofl@arg+1,f
  5207     0DFC  3000               	movlw	0
  5208     0DFD  3DA4               	addwfc	___xxtofl@arg+2,f
  5209     0DFE  3000               	movlw	0
  5210     0DFF  3DA5               	addwfc	___xxtofl@arg+3,f
  5211     0E00                     l2444:
  5212     0E00  3001               	movlw	1
  5213     0E01                     u3235:
  5214     0E01  36A5               	lsrf	___xxtofl@arg+3,f
  5215     0E02  0CA4               	rrf	___xxtofl@arg+2,f
  5216     0E03  0CA3               	rrf	___xxtofl@arg+1,f
  5217     0E04  0CA2               	rrf	___xxtofl@arg,f
  5218     0E05  0B89               	decfsz	9,f
  5219     0E06  2E01               	goto	u3235
  5220     0E07                     l799:
  5221     0E07  30FF               	movlw	255
  5222     0E08  0525               	andwf	___xxtofl@arg+3,w
  5223     0E09  1D03               	btfss	3,2
  5224     0E0A  2E0C               	goto	u3241
  5225     0E0B  2E0D               	goto	u3240
  5226     0E0C                     u3241:
  5227     0E0C  2DF4               	goto	l2440
  5228     0E0D                     u3240:
  5229     0E0D  2E17               	goto	l2448
  5230     0E0E                     l2446:
  5231     0E0E  3001               	movlw	1
  5232     0E0F  02A1               	subwf	___xxtofl@exp,f
  5233     0E10  3001               	movlw	1
  5234     0E11                     u3255:
  5235     0E11  35A2               	lslf	___xxtofl@arg,f
  5236     0E12  0DA3               	rlf	___xxtofl@arg+1,f
  5237     0E13  0DA4               	rlf	___xxtofl@arg+2,f
  5238     0E14  0DA5               	rlf	___xxtofl@arg+3,f
  5239     0E15  0B89               	decfsz	9,f
  5240     0E16  2E11               	goto	u3255
  5241     0E17                     l2448:
  5242     0E17  1BA4               	btfsc	___xxtofl@arg+2,7
  5243     0E18  2E1A               	goto	u3261
  5244     0E19  2E1B               	goto	u3260
  5245     0E1A                     u3261:
  5246     0E1A  2E21               	goto	l806
  5247     0E1B                     u3260:
  5248     0E1B                     l2450:
  5249     0E1B  3002               	movlw	2
  5250     0E1C  0221               	subwf	___xxtofl@exp,w
  5251     0E1D  1803               	skipnc
  5252     0E1E  2E20               	goto	u3271
  5253     0E1F  2E21               	goto	u3270
  5254     0E20                     u3271:
  5255     0E20  2E0E               	goto	l2446
  5256     0E21                     u3270:
  5257     0E21                     l806:
  5258     0E21  1821               	btfsc	___xxtofl@exp,0
  5259     0E22  2E24               	goto	u3281
  5260     0E23  2E25               	goto	u3280
  5261     0E24                     u3281:
  5262     0E24  2E2D               	goto	l807
  5263     0E25                     u3280:
  5264     0E25                     l2452:
  5265     0E25  30FF               	movlw	255
  5266     0E26  05A2               	andwf	___xxtofl@arg,f
  5267     0E27  30FF               	movlw	255
  5268     0E28  05A3               	andwf	___xxtofl@arg+1,f
  5269     0E29  307F               	movlw	127
  5270     0E2A  05A4               	andwf	___xxtofl@arg+2,f
  5271     0E2B  30FF               	movlw	255
  5272     0E2C  05A5               	andwf	___xxtofl@arg+3,f
  5273     0E2D                     l807:
  5274     0E2D  1003               	clrc
  5275     0E2E  0CA1               	rrf	___xxtofl@exp,f
  5276     0E2F                     l2454:
  5277     0E2F  0821               	movf	___xxtofl@exp,w
  5278     0E30  00F6               	movwf	??___xxtofl
  5279     0E31  01F7               	clrf	??___xxtofl+1
  5280     0E32  01F8               	clrf	??___xxtofl+2
  5281     0E33  01F9               	clrf	??___xxtofl+3
  5282     0E34  3018               	movlw	24
  5283     0E35                     u3295:
  5284     0E35  35F6               	lslf	??___xxtofl,f
  5285     0E36  0DF7               	rlf	??___xxtofl+1,f
  5286     0E37  0DF8               	rlf	??___xxtofl+2,f
  5287     0E38  0DF9               	rlf	??___xxtofl+3,f
  5288     0E39                     u3290:
  5289     0E39  0B89               	decfsz	9,f
  5290     0E3A  2E35               	goto	u3295
  5291     0E3B  0876               	movf	??___xxtofl,w
  5292     0E3C  04A2               	iorwf	___xxtofl@arg,f
  5293     0E3D  0877               	movf	??___xxtofl+1,w
  5294     0E3E  04A3               	iorwf	___xxtofl@arg+1,f
  5295     0E3F  0878               	movf	??___xxtofl+2,w
  5296     0E40  04A4               	iorwf	___xxtofl@arg+2,f
  5297     0E41  0879               	movf	??___xxtofl+3,w
  5298     0E42  04A5               	iorwf	___xxtofl@arg+3,f
  5299     0E43                     l2456:
  5300     0E43  0820               	movf	___xxtofl@sign,w
  5301     0E44  1903               	btfsc	3,2
  5302     0E45  2E47               	goto	u3301
  5303     0E46  2E48               	goto	u3300
  5304     0E47                     u3301:
  5305     0E47  2E4D               	goto	l2462
  5306     0E48                     u3300:
  5307     0E48                     l2458:
  5308     0E48  1FF5               	btfss	___xxtofl@val+3,7
  5309     0E49  2E4B               	goto	u3311
  5310     0E4A  2E4C               	goto	u3310
  5311     0E4B                     u3311:
  5312     0E4B  2E4D               	goto	l2462
  5313     0E4C                     u3310:
  5314     0E4C                     l2460:
  5315     0E4C  17A5               	bsf	___xxtofl@arg+3,7
  5316     0E4D                     l2462:
  5317     0E4D  0825               	movf	___xxtofl@arg+3,w
  5318     0E4E  00F5               	movwf	?___xxtofl+3
  5319     0E4F  0824               	movf	___xxtofl@arg+2,w
  5320     0E50  00F4               	movwf	?___xxtofl+2
  5321     0E51  0823               	movf	___xxtofl@arg+1,w
  5322     0E52  00F3               	movwf	?___xxtofl+1
  5323     0E53  0822               	movf	___xxtofl@arg,w
  5324     0E54  00F2               	movwf	?___xxtofl
  5325     0E55                     l795:
  5326     0E55  0008               	return
  5327     0E56                     __end_of___xxtofl:
  5328                           
  5329                           	psect	text17
  5330     0E56                     __ptext17:	
  5331 ;; *************** function ___fldiv *****************
  5332 ;; Defined at:
  5333 ;;		line 8 in file "C:\Program Files\Microchip\xc8\v2.46\pic\sources\c99\common\sprcdiv.c"
  5334 ;; Parameters:    Size  Location     Type
  5335 ;;  a               4   31[BANK0 ] unsigned char 
  5336 ;;  b               4   35[BANK0 ] unsigned char 
  5337 ;; Auto vars:     Size  Location     Type
  5338 ;;  grs             4   51[BANK0 ] unsigned long 
  5339 ;;  rem             4   44[BANK0 ] unsigned long 
  5340 ;;  new_exp         2   49[BANK0 ] short 
  5341 ;;  aexp            1   56[BANK0 ] unsigned char 
  5342 ;;  bexp            1   55[BANK0 ] unsigned char 
  5343 ;;  sign            1   48[BANK0 ] unsigned char 
  5344 ;; Return value:  Size  Location     Type
  5345 ;;                  4   31[BANK0 ] unsigned char 
  5346 ;; Registers used:
  5347 ;;		wreg, status,2, status,0
  5348 ;; Tracked objects:
  5349 ;;		On entry : 0/0
  5350 ;;		On exit  : 0/0
  5351 ;;		Unchanged: 0/0
  5352 ;; Data sizes:     COMMON   BANK0   BANK1   BANK2   BANK3   BANK4   BANK5   BANK6
  5353 ;;      Params:         0       8       0       0       0       0       0       0
  5354 ;;      Locals:         0      13       0       0       0       0       0       0
  5355 ;;      Temps:          0       5       0       0       0       0       0       0
  5356 ;;      Totals:         0      26       0       0       0       0       0       0
  5357 ;;Total ram usage:       26 bytes
  5358 ;; Hardware stack levels used: 1
  5359 ;; Hardware stack levels required when called: 3
  5360 ;; This function calls:
  5361 ;;		Nothing
  5362 ;; This function is called by:
  5363 ;;		_upd_disp
  5364 ;;		_get_avg_temp
  5365 ;;		_upd_PWM
  5366 ;; This function uses a non-reentrant model
  5367 ;;
  5368                           
  5369     0E56                     ___fldiv:	
  5370                           ;psect for function ___fldiv
  5371                           
  5372     0E56                     l2142:	
  5373                           ;incstack = 0
  5374                           ; Regs used in ___fldiv: [wreg+status,2+status,0]
  5375                           
  5376     0E56  0020               	movlb	0	; select bank0
  5377     0E57  0846               	movf	___fldiv@b+3,w
  5378     0E58  3980               	andlw	128
  5379     0E59  00D0               	movwf	___fldiv@sign
  5380     0E5A                     l2144:
  5381     0E5A  3546               	lslf	___fldiv@b+3,w
  5382     0E5B  00D7               	movwf	___fldiv@bexp
  5383     0E5C                     l2146:
  5384     0E5C  1FC5               	btfss	___fldiv@b+2,7
  5385     0E5D  2E5F               	goto	u2631
  5386     0E5E  2E60               	goto	u2630
  5387     0E5F                     u2631:
  5388     0E5F  2E61               	goto	l2150
  5389     0E60                     u2630:
  5390     0E60                     l2148:
  5391     0E60  1457               	bsf	___fldiv@bexp,0
  5392     0E61                     l2150:
  5393     0E61  0857               	movf	___fldiv@bexp,w
  5394     0E62  1903               	btfsc	3,2
  5395     0E63  2E65               	goto	u2641
  5396     0E64  2E66               	goto	u2640
  5397     0E65                     u2641:
  5398     0E65  2E76               	goto	l2160
  5399     0E66                     u2640:
  5400     0E66                     l2152:
  5401     0E66  0A57               	incf	___fldiv@bexp,w
  5402     0E67  1D03               	btfss	3,2
  5403     0E68  2E6A               	goto	u2651
  5404     0E69  2E6B               	goto	u2650
  5405     0E6A                     u2651:
  5406     0E6A  2E73               	goto	l2156
  5407     0E6B                     u2650:
  5408     0E6B                     l2154:
  5409     0E6B  3000               	movlw	0
  5410     0E6C  00C6               	movwf	___fldiv@b+3
  5411     0E6D  3000               	movlw	0
  5412     0E6E  00C5               	movwf	___fldiv@b+2
  5413     0E6F  3000               	movlw	0
  5414     0E70  00C4               	movwf	___fldiv@b+1
  5415     0E71  3000               	movlw	0
  5416     0E72  00C3               	movwf	___fldiv@b
  5417     0E73                     l2156:
  5418     0E73  17C5               	bsf	___fldiv@b+2,7
  5419     0E74                     l2158:
  5420     0E74  01C6               	clrf	___fldiv@b+3
  5421     0E75  2E7E               	goto	l2162
  5422     0E76                     l2160:
  5423     0E76  3000               	movlw	0
  5424     0E77  00C6               	movwf	___fldiv@b+3
  5425     0E78  3000               	movlw	0
  5426     0E79  00C5               	movwf	___fldiv@b+2
  5427     0E7A  3000               	movlw	0
  5428     0E7B  00C4               	movwf	___fldiv@b+1
  5429     0E7C  3000               	movlw	0
  5430     0E7D  00C3               	movwf	___fldiv@b
  5431     0E7E                     l2162:
  5432     0E7E  0842               	movf	___fldiv@a+3,w
  5433     0E7F  3980               	andlw	128
  5434     0E80  00C7               	movwf	??___fldiv
  5435     0E81  0847               	movf	??___fldiv,w
  5436     0E82  06D0               	xorwf	___fldiv@sign,f
  5437     0E83                     l2164:
  5438     0E83  3542               	lslf	___fldiv@a+3,w
  5439     0E84  00D8               	movwf	___fldiv@aexp
  5440     0E85                     l2166:
  5441     0E85  1FC1               	btfss	___fldiv@a+2,7
  5442     0E86  2E88               	goto	u2661
  5443     0E87  2E89               	goto	u2660
  5444     0E88                     u2661:
  5445     0E88  2E8A               	goto	l2170
  5446     0E89                     u2660:
  5447     0E89                     l2168:
  5448     0E89  1458               	bsf	___fldiv@aexp,0
  5449     0E8A                     l2170:
  5450     0E8A  0858               	movf	___fldiv@aexp,w
  5451     0E8B  1903               	btfsc	3,2
  5452     0E8C  2E8E               	goto	u2671
  5453     0E8D  2E8F               	goto	u2670
  5454     0E8E                     u2671:
  5455     0E8E  2E9F               	goto	l2180
  5456     0E8F                     u2670:
  5457     0E8F                     l2172:
  5458     0E8F  0A58               	incf	___fldiv@aexp,w
  5459     0E90  1D03               	btfss	3,2
  5460     0E91  2E93               	goto	u2681
  5461     0E92  2E94               	goto	u2680
  5462     0E93                     u2681:
  5463     0E93  2E9C               	goto	l2176
  5464     0E94                     u2680:
  5465     0E94                     l2174:
  5466     0E94  3000               	movlw	0
  5467     0E95  00C2               	movwf	___fldiv@a+3
  5468     0E96  3000               	movlw	0
  5469     0E97  00C1               	movwf	___fldiv@a+2
  5470     0E98  3000               	movlw	0
  5471     0E99  00C0               	movwf	___fldiv@a+1
  5472     0E9A  3000               	movlw	0
  5473     0E9B  00BF               	movwf	___fldiv@a
  5474     0E9C                     l2176:
  5475     0E9C  17C1               	bsf	___fldiv@a+2,7
  5476     0E9D                     l2178:
  5477     0E9D  01C2               	clrf	___fldiv@a+3
  5478     0E9E  2EA7               	goto	l709
  5479     0E9F                     l2180:
  5480     0E9F  3000               	movlw	0
  5481     0EA0  00C2               	movwf	___fldiv@a+3
  5482     0EA1  3000               	movlw	0
  5483     0EA2  00C1               	movwf	___fldiv@a+2
  5484     0EA3  3000               	movlw	0
  5485     0EA4  00C0               	movwf	___fldiv@a+1
  5486     0EA5  3000               	movlw	0
  5487     0EA6  00BF               	movwf	___fldiv@a
  5488     0EA7                     l709:
  5489     0EA7  0842               	movf	___fldiv@a+3,w
  5490     0EA8  0441               	iorwf	___fldiv@a+2,w
  5491     0EA9  0440               	iorwf	___fldiv@a+1,w
  5492     0EAA  043F               	iorwf	___fldiv@a,w
  5493     0EAB  1D03               	skipz
  5494     0EAC  2EAE               	goto	u2691
  5495     0EAD  2EAF               	goto	u2690
  5496     0EAE                     u2691:
  5497     0EAE  2EC8               	goto	l2190
  5498     0EAF                     u2690:
  5499     0EAF                     l2182:
  5500     0EAF  3000               	movlw	0
  5501     0EB0  00C6               	movwf	___fldiv@b+3
  5502     0EB1  3000               	movlw	0
  5503     0EB2  00C5               	movwf	___fldiv@b+2
  5504     0EB3  3000               	movlw	0
  5505     0EB4  00C4               	movwf	___fldiv@b+1
  5506     0EB5  3000               	movlw	0
  5507     0EB6  00C3               	movwf	___fldiv@b
  5508     0EB7  3080               	movlw	128
  5509     0EB8  04C5               	iorwf	___fldiv@b+2,f
  5510     0EB9  307F               	movlw	127
  5511     0EBA  04C6               	iorwf	___fldiv@b+3,f
  5512     0EBB                     l2184:
  5513     0EBB  0850               	movf	___fldiv@sign,w
  5514     0EBC  00C7               	movwf	??___fldiv
  5515     0EBD  0847               	movf	??___fldiv,w
  5516     0EBE  04C6               	iorwf	___fldiv@b+3,f
  5517     0EBF                     l2186:
  5518     0EBF  0846               	movf	___fldiv@b+3,w
  5519     0EC0  00C2               	movwf	?___fldiv+3
  5520     0EC1  0845               	movf	___fldiv@b+2,w
  5521     0EC2  00C1               	movwf	?___fldiv+2
  5522     0EC3  0844               	movf	___fldiv@b+1,w
  5523     0EC4  00C0               	movwf	?___fldiv+1
  5524     0EC5  0843               	movf	___fldiv@b,w
  5525     0EC6  00BF               	movwf	?___fldiv
  5526     0EC7  2FFF               	goto	l711
  5527     0EC8                     l2190:
  5528     0EC8  0857               	movf	___fldiv@bexp,w
  5529     0EC9  1D03               	btfss	3,2
  5530     0ECA  2ECC               	goto	u2701
  5531     0ECB  2ECD               	goto	u2700
  5532     0ECC                     u2701:
  5533     0ECC  2ED6               	goto	l2196
  5534     0ECD                     u2700:
  5535     0ECD                     l2192:
  5536     0ECD  3000               	movlw	0
  5537     0ECE  00C2               	movwf	?___fldiv+3
  5538     0ECF  3000               	movlw	0
  5539     0ED0  00C1               	movwf	?___fldiv+2
  5540     0ED1  3000               	movlw	0
  5541     0ED2  00C0               	movwf	?___fldiv+1
  5542     0ED3  3000               	movlw	0
  5543     0ED4  00BF               	movwf	?___fldiv
  5544     0ED5  2FFF               	goto	l711
  5545     0ED6                     l2196:
  5546     0ED6  0857               	movf	___fldiv@bexp,w
  5547     0ED7  00C7               	movwf	??___fldiv
  5548     0ED8  01C8               	clrf	??___fldiv+1
  5549     0ED9  0848               	movf	??___fldiv+1,w
  5550     0EDA  00CA               	movwf	??___fldiv+3
  5551     0EDB  0858               	movf	___fldiv@aexp,w
  5552     0EDC  0247               	subwf	??___fldiv,w
  5553     0EDD  00C9               	movwf	??___fldiv+2
  5554     0EDE  1C03               	skipc
  5555     0EDF  03CA               	decf	??___fldiv+3,f
  5556     0EE0  0849               	movf	??___fldiv+2,w
  5557     0EE1  3E7F               	addlw	127
  5558     0EE2  00D1               	movwf	___fldiv@new_exp
  5559     0EE3  3000               	movlw	0
  5560     0EE4  3D4A               	addwfc	??___fldiv+3,w
  5561     0EE5  00D2               	movwf	___fldiv@new_exp+1
  5562     0EE6                     l2198:
  5563     0EE6  0846               	movf	___fldiv@b+3,w
  5564     0EE7  00CF               	movwf	___fldiv@rem+3
  5565     0EE8  0845               	movf	___fldiv@b+2,w
  5566     0EE9  00CE               	movwf	___fldiv@rem+2
  5567     0EEA  0844               	movf	___fldiv@b+1,w
  5568     0EEB  00CD               	movwf	___fldiv@rem+1
  5569     0EEC  0843               	movf	___fldiv@b,w
  5570     0EED  00CC               	movwf	___fldiv@rem
  5571     0EEE                     l2200:
  5572     0EEE  3000               	movlw	0
  5573     0EEF  00C6               	movwf	___fldiv@b+3
  5574     0EF0  3000               	movlw	0
  5575     0EF1  00C5               	movwf	___fldiv@b+2
  5576     0EF2  3000               	movlw	0
  5577     0EF3  00C4               	movwf	___fldiv@b+1
  5578     0EF4  3000               	movlw	0
  5579     0EF5  00C3               	movwf	___fldiv@b
  5580     0EF6                     l2202:
  5581     0EF6  3000               	movlw	0
  5582     0EF7  00D6               	movwf	___fldiv@grs+3
  5583     0EF8  3000               	movlw	0
  5584     0EF9  00D5               	movwf	___fldiv@grs+2
  5585     0EFA  3000               	movlw	0
  5586     0EFB  00D4               	movwf	___fldiv@grs+1
  5587     0EFC  3000               	movlw	0
  5588     0EFD  00D3               	movwf	___fldiv@grs
  5589     0EFE                     l2204:
  5590     0EFE  01D8               	clrf	___fldiv@aexp
  5591     0EFF  2F3E               	goto	l2224
  5592     0F00                     l2206:
  5593     0F00  0858               	movf	___fldiv@aexp,w
  5594     0F01  1903               	btfsc	3,2
  5595     0F02  2F04               	goto	u2711
  5596     0F03  2F05               	goto	u2710
  5597     0F04                     u2711:
  5598     0F04  2F1F               	goto	l2216
  5599     0F05                     u2710:
  5600     0F05                     l2208:
  5601     0F05  3001               	movlw	1
  5602     0F06                     u2725:
  5603     0F06  35CC               	lslf	___fldiv@rem,f
  5604     0F07  0DCD               	rlf	___fldiv@rem+1,f
  5605     0F08  0DCE               	rlf	___fldiv@rem+2,f
  5606     0F09  0DCF               	rlf	___fldiv@rem+3,f
  5607     0F0A  0B89               	decfsz	9,f
  5608     0F0B  2F06               	goto	u2725
  5609     0F0C  3001               	movlw	1
  5610     0F0D                     u2735:
  5611     0F0D  35C3               	lslf	___fldiv@b,f
  5612     0F0E  0DC4               	rlf	___fldiv@b+1,f
  5613     0F0F  0DC5               	rlf	___fldiv@b+2,f
  5614     0F10  0DC6               	rlf	___fldiv@b+3,f
  5615     0F11  0B89               	decfsz	9,f
  5616     0F12  2F0D               	goto	u2735
  5617     0F13                     l2210:
  5618     0F13  1FD6               	btfss	___fldiv@grs+3,7
  5619     0F14  2F16               	goto	u2741
  5620     0F15  2F17               	goto	u2740
  5621     0F16                     u2741:
  5622     0F16  2F18               	goto	l2214
  5623     0F17                     u2740:
  5624     0F17                     l2212:
  5625     0F17  1443               	bsf	___fldiv@b,0
  5626     0F18                     l2214:
  5627     0F18  3001               	movlw	1
  5628     0F19                     u2755:
  5629     0F19  35D3               	lslf	___fldiv@grs,f
  5630     0F1A  0DD4               	rlf	___fldiv@grs+1,f
  5631     0F1B  0DD5               	rlf	___fldiv@grs+2,f
  5632     0F1C  0DD6               	rlf	___fldiv@grs+3,f
  5633     0F1D  0B89               	decfsz	9,f
  5634     0F1E  2F19               	goto	u2755
  5635     0F1F                     l2216:
  5636     0F1F  0842               	movf	___fldiv@a+3,w
  5637     0F20  024F               	subwf	___fldiv@rem+3,w
  5638     0F21  1D03               	skipz
  5639     0F22  2F2D               	goto	u2765
  5640     0F23  0841               	movf	___fldiv@a+2,w
  5641     0F24  024E               	subwf	___fldiv@rem+2,w
  5642     0F25  1D03               	skipz
  5643     0F26  2F2D               	goto	u2765
  5644     0F27  0840               	movf	___fldiv@a+1,w
  5645     0F28  024D               	subwf	___fldiv@rem+1,w
  5646     0F29  1D03               	skipz
  5647     0F2A  2F2D               	goto	u2765
  5648     0F2B  083F               	movf	___fldiv@a,w
  5649     0F2C  024C               	subwf	___fldiv@rem,w
  5650     0F2D                     u2765:
  5651     0F2D  1C03               	skipc
  5652     0F2E  2F30               	goto	u2761
  5653     0F2F  2F31               	goto	u2760
  5654     0F30                     u2761:
  5655     0F30  2F3A               	goto	l2222
  5656     0F31                     u2760:
  5657     0F31                     l2218:
  5658     0F31  1756               	bsf	___fldiv@grs+3,6
  5659     0F32                     l2220:
  5660     0F32  083F               	movf	___fldiv@a,w
  5661     0F33  02CC               	subwf	___fldiv@rem,f
  5662     0F34  0840               	movf	___fldiv@a+1,w
  5663     0F35  3BCD               	subwfb	___fldiv@rem+1,f
  5664     0F36  0841               	movf	___fldiv@a+2,w
  5665     0F37  3BCE               	subwfb	___fldiv@rem+2,f
  5666     0F38  0842               	movf	___fldiv@a+3,w
  5667     0F39  3BCF               	subwfb	___fldiv@rem+3,f
  5668     0F3A                     l2222:
  5669     0F3A  3001               	movlw	1
  5670     0F3B  00C7               	movwf	??___fldiv
  5671     0F3C  0847               	movf	??___fldiv,w
  5672     0F3D  07D8               	addwf	___fldiv@aexp,f
  5673     0F3E                     l2224:
  5674     0F3E  301A               	movlw	26
  5675     0F3F  0258               	subwf	___fldiv@aexp,w
  5676     0F40  1C03               	skipc
  5677     0F41  2F43               	goto	u2771
  5678     0F42  2F44               	goto	u2770
  5679     0F43                     u2771:
  5680     0F43  2F00               	goto	l2206
  5681     0F44                     u2770:
  5682     0F44                     l2226:
  5683     0F44  084F               	movf	___fldiv@rem+3,w
  5684     0F45  044E               	iorwf	___fldiv@rem+2,w
  5685     0F46  044D               	iorwf	___fldiv@rem+1,w
  5686     0F47  044C               	iorwf	___fldiv@rem,w
  5687     0F48  1903               	skipnz
  5688     0F49  2F4B               	goto	u2781
  5689     0F4A  2F4C               	goto	u2780
  5690     0F4B                     u2781:
  5691     0F4B  2F65               	goto	l2240
  5692     0F4C                     u2780:
  5693     0F4C                     l2228:
  5694     0F4C  1453               	bsf	___fldiv@grs,0
  5695     0F4D  2F65               	goto	l2240
  5696     0F4E                     l2230:
  5697     0F4E  3001               	movlw	1
  5698     0F4F                     u2795:
  5699     0F4F  35C3               	lslf	___fldiv@b,f
  5700     0F50  0DC4               	rlf	___fldiv@b+1,f
  5701     0F51  0DC5               	rlf	___fldiv@b+2,f
  5702     0F52  0DC6               	rlf	___fldiv@b+3,f
  5703     0F53  0B89               	decfsz	9,f
  5704     0F54  2F4F               	goto	u2795
  5705     0F55                     l2232:
  5706     0F55  1FD6               	btfss	___fldiv@grs+3,7
  5707     0F56  2F58               	goto	u2801
  5708     0F57  2F59               	goto	u2800
  5709     0F58                     u2801:
  5710     0F58  2F5A               	goto	l2236
  5711     0F59                     u2800:
  5712     0F59                     l2234:
  5713     0F59  1443               	bsf	___fldiv@b,0
  5714     0F5A                     l2236:
  5715     0F5A  3001               	movlw	1
  5716     0F5B                     u2815:
  5717     0F5B  35D3               	lslf	___fldiv@grs,f
  5718     0F5C  0DD4               	rlf	___fldiv@grs+1,f
  5719     0F5D  0DD5               	rlf	___fldiv@grs+2,f
  5720     0F5E  0DD6               	rlf	___fldiv@grs+3,f
  5721     0F5F  0B89               	decfsz	9,f
  5722     0F60  2F5B               	goto	u2815
  5723     0F61                     l2238:
  5724     0F61  30FF               	movlw	255
  5725     0F62  07D1               	addwf	___fldiv@new_exp,f
  5726     0F63  30FF               	movlw	255
  5727     0F64  3DD2               	addwfc	___fldiv@new_exp+1,f
  5728     0F65                     l2240:
  5729     0F65  1FC5               	btfss	___fldiv@b+2,7
  5730     0F66  2F68               	goto	u2821
  5731     0F67  2F69               	goto	u2820
  5732     0F68                     u2821:
  5733     0F68  2F4E               	goto	l2230
  5734     0F69                     u2820:
  5735     0F69                     l2242:
  5736     0F69  01D8               	clrf	___fldiv@aexp
  5737     0F6A                     l2244:
  5738     0F6A  1FD6               	btfss	___fldiv@grs+3,7
  5739     0F6B  2F6D               	goto	u2831
  5740     0F6C  2F6E               	goto	u2830
  5741     0F6D                     u2831:
  5742     0F6D  2F8A               	goto	l2252
  5743     0F6E                     u2830:
  5744     0F6E                     l2246:
  5745     0F6E  30FF               	movlw	255
  5746     0F6F  0553               	andwf	___fldiv@grs,w
  5747     0F70  00C7               	movwf	??___fldiv
  5748     0F71  30FF               	movlw	255
  5749     0F72  0554               	andwf	___fldiv@grs+1,w
  5750     0F73  00C8               	movwf	??___fldiv+1
  5751     0F74  30FF               	movlw	255
  5752     0F75  0555               	andwf	___fldiv@grs+2,w
  5753     0F76  00C9               	movwf	??___fldiv+2
  5754     0F77  307F               	movlw	127
  5755     0F78  0556               	andwf	___fldiv@grs+3,w
  5756     0F79  00CA               	movwf	??___fldiv+3
  5757     0F7A  084A               	movf	??___fldiv+3,w
  5758     0F7B  0449               	iorwf	??___fldiv+2,w
  5759     0F7C  0448               	iorwf	??___fldiv+1,w
  5760     0F7D  0447               	iorwf	??___fldiv,w
  5761     0F7E  1903               	skipnz
  5762     0F7F  2F81               	goto	u2841
  5763     0F80  2F82               	goto	u2840
  5764     0F81                     u2841:
  5765     0F81  2F85               	goto	l725
  5766     0F82                     u2840:
  5767     0F82                     l2248:
  5768     0F82  01D8               	clrf	___fldiv@aexp
  5769     0F83  0AD8               	incf	___fldiv@aexp,f
  5770     0F84  2F8A               	goto	l2252
  5771     0F85                     l725:
  5772     0F85  1C43               	btfss	___fldiv@b,0
  5773     0F86  2F88               	goto	u2851
  5774     0F87  2F89               	goto	u2850
  5775     0F88                     u2851:
  5776     0F88  2F8A               	goto	l2252
  5777     0F89                     u2850:
  5778     0F89  2F82               	goto	l2248
  5779     0F8A                     l2252:
  5780     0F8A  0858               	movf	___fldiv@aexp,w
  5781     0F8B  1903               	btfsc	3,2
  5782     0F8C  2F8E               	goto	u2861
  5783     0F8D  2F8F               	goto	u2860
  5784     0F8E                     u2861:
  5785     0F8E  2FB7               	goto	l2262
  5786     0F8F                     u2860:
  5787     0F8F                     l2254:
  5788     0F8F  3001               	movlw	1
  5789     0F90  07C3               	addwf	___fldiv@b,f
  5790     0F91  3000               	movlw	0
  5791     0F92  3DC4               	addwfc	___fldiv@b+1,f
  5792     0F93  3000               	movlw	0
  5793     0F94  3DC5               	addwfc	___fldiv@b+2,f
  5794     0F95  3000               	movlw	0
  5795     0F96  3DC6               	addwfc	___fldiv@b+3,f
  5796     0F97                     l2256:
  5797     0F97  1C46               	btfss	___fldiv@b+3,0
  5798     0F98  2F9A               	goto	u2871
  5799     0F99  2F9B               	goto	u2870
  5800     0F9A                     u2871:
  5801     0F9A  2FB7               	goto	l2262
  5802     0F9B                     u2870:
  5803     0F9B                     l2258:
  5804     0F9B  0843               	movf	___fldiv@b,w
  5805     0F9C  00C7               	movwf	??___fldiv
  5806     0F9D  0844               	movf	___fldiv@b+1,w
  5807     0F9E  00C8               	movwf	??___fldiv+1
  5808     0F9F  0845               	movf	___fldiv@b+2,w
  5809     0FA0  00C9               	movwf	??___fldiv+2
  5810     0FA1  0846               	movf	___fldiv@b+3,w
  5811     0FA2  00CA               	movwf	??___fldiv+3
  5812     0FA3  3001               	movlw	1
  5813     0FA4  00CB               	movwf	??___fldiv+4
  5814     0FA5                     u2885:
  5815     0FA5  37CA               	asrf	??___fldiv+3,f
  5816     0FA6  0CC9               	rrf	??___fldiv+2,f
  5817     0FA7  0CC8               	rrf	??___fldiv+1,f
  5818     0FA8  0CC7               	rrf	??___fldiv,f
  5819     0FA9                     u2880:
  5820     0FA9  0BCB               	decfsz	??___fldiv+4,f
  5821     0FAA  2FA5               	goto	u2885
  5822     0FAB  084A               	movf	??___fldiv+3,w
  5823     0FAC  00C6               	movwf	___fldiv@b+3
  5824     0FAD  0849               	movf	??___fldiv+2,w
  5825     0FAE  00C5               	movwf	___fldiv@b+2
  5826     0FAF  0848               	movf	??___fldiv+1,w
  5827     0FB0  00C4               	movwf	___fldiv@b+1
  5828     0FB1  0847               	movf	??___fldiv,w
  5829     0FB2  00C3               	movwf	___fldiv@b
  5830     0FB3                     l2260:
  5831     0FB3  3001               	movlw	1
  5832     0FB4  07D1               	addwf	___fldiv@new_exp,f
  5833     0FB5  3000               	movlw	0
  5834     0FB6  3DD2               	addwfc	___fldiv@new_exp+1,f
  5835     0FB7                     l2262:
  5836     0FB7  0852               	movf	___fldiv@new_exp+1,w
  5837     0FB8  3A80               	xorlw	128
  5838     0FB9  00C7               	movwf	??___fldiv
  5839     0FBA  3080               	movlw	128
  5840     0FBB  0247               	subwf	??___fldiv,w
  5841     0FBC  1D03               	skipz
  5842     0FBD  2FC0               	goto	u2895
  5843     0FBE  30FF               	movlw	255
  5844     0FBF  0251               	subwf	___fldiv@new_exp,w
  5845     0FC0                     u2895:
  5846     0FC0  1C03               	skipc
  5847     0FC1  2FC3               	goto	u2891
  5848     0FC2  2FC4               	goto	u2890
  5849     0FC3                     u2891:
  5850     0FC3  2FD1               	goto	l730
  5851     0FC4                     u2890:
  5852     0FC4                     l2264:
  5853     0FC4  30FF               	movlw	255
  5854     0FC5  0020               	movlb	0	; select bank0
  5855     0FC6  00D1               	movwf	___fldiv@new_exp
  5856     0FC7  3000               	movlw	0
  5857     0FC8  00D2               	movwf	___fldiv@new_exp+1
  5858     0FC9  3000               	movlw	0
  5859     0FCA  00C6               	movwf	___fldiv@b+3
  5860     0FCB  3000               	movlw	0
  5861     0FCC  00C5               	movwf	___fldiv@b+2
  5862     0FCD  3000               	movlw	0
  5863     0FCE  00C4               	movwf	___fldiv@b+1
  5864     0FCF  3000               	movlw	0
  5865     0FD0  00C3               	movwf	___fldiv@b
  5866     0FD1                     l730:
  5867     0FD1  0020               	movlb	0	; select bank0
  5868     0FD2  0852               	movf	___fldiv@new_exp+1,w
  5869     0FD3  3A80               	xorlw	128
  5870     0FD4  00C7               	movwf	??___fldiv
  5871     0FD5  3080               	movlw	128
  5872     0FD6  0247               	subwf	??___fldiv,w
  5873     0FD7  1D03               	skipz
  5874     0FD8  2FDB               	goto	u2905
  5875     0FD9  3001               	movlw	1
  5876     0FDA  0251               	subwf	___fldiv@new_exp,w
  5877     0FDB                     u2905:
  5878     0FDB  1803               	skipnc
  5879     0FDC  2FDE               	goto	u2901
  5880     0FDD  2FDF               	goto	u2900
  5881     0FDE                     u2901:
  5882     0FDE  2FEB               	goto	l731
  5883     0FDF                     u2900:
  5884     0FDF                     l2266:
  5885     0FDF  0020               	movlb	0	; select bank0
  5886     0FE0  01D1               	clrf	___fldiv@new_exp
  5887     0FE1  01D2               	clrf	___fldiv@new_exp+1
  5888     0FE2                     l2268:
  5889     0FE2  3000               	movlw	0
  5890     0FE3  00C6               	movwf	___fldiv@b+3
  5891     0FE4  3000               	movlw	0
  5892     0FE5  00C5               	movwf	___fldiv@b+2
  5893     0FE6  3000               	movlw	0
  5894     0FE7  00C4               	movwf	___fldiv@b+1
  5895     0FE8  3000               	movlw	0
  5896     0FE9  00C3               	movwf	___fldiv@b
  5897     0FEA                     l2270:
  5898     0FEA  01D0               	clrf	___fldiv@sign
  5899     0FEB                     l731:
  5900     0FEB  0020               	movlb	0	; select bank0
  5901     0FEC  0851               	movf	___fldiv@new_exp,w
  5902     0FED  00D7               	movwf	___fldiv@bexp
  5903     0FEE                     l2272:
  5904     0FEE  1C57               	btfss	___fldiv@bexp,0
  5905     0FEF  2FF1               	goto	u2911
  5906     0FF0  2FF2               	goto	u2910
  5907     0FF1                     u2911:
  5908     0FF1  2FF4               	goto	l2276
  5909     0FF2                     u2910:
  5910     0FF2                     l2274:
  5911     0FF2  17C5               	bsf	___fldiv@b+2,7
  5912     0FF3  2FF8               	goto	l733
  5913     0FF4                     l2276:
  5914     0FF4  307F               	movlw	127
  5915     0FF5  00C7               	movwf	??___fldiv
  5916     0FF6  0847               	movf	??___fldiv,w
  5917     0FF7  05C5               	andwf	___fldiv@b+2,f
  5918     0FF8                     l733:
  5919     0FF8  3657               	lsrf	___fldiv@bexp,w
  5920     0FF9  00C6               	movwf	___fldiv@b+3
  5921     0FFA  0850               	movf	___fldiv@sign,w
  5922     0FFB  00C7               	movwf	??___fldiv
  5923     0FFC  0847               	movf	??___fldiv,w
  5924     0FFD  04C6               	iorwf	___fldiv@b+3,f
  5925     0FFE  2EBF               	goto	l2186
  5926     0FFF                     l711:
  5927     0FFF  0008               	return
  5928     1000                     __end_of___fldiv:
  5929                           
  5930                           	psect	text18
  5931     04F8                     __ptext18:	
  5932 ;; *************** function ___fladd *****************
  5933 ;; Defined at:
  5934 ;;		line 10 in file "C:\Program Files\Microchip\xc8\v2.46\pic\sources\c99\common\sprcadd.c"
  5935 ;; Parameters:    Size  Location     Type
  5936 ;;  b               4   57[BANK0 ] unsigned char 
  5937 ;;  a               4   61[BANK0 ] unsigned char 
  5938 ;; Auto vars:     Size  Location     Type
  5939 ;;  grs             1   76[BANK0 ] unsigned char 
  5940 ;;  bexp            1   75[BANK0 ] unsigned char 
  5941 ;;  aexp            1   74[BANK0 ] unsigned char 
  5942 ;;  signs           1   73[BANK0 ] unsigned char 
  5943 ;; Return value:  Size  Location     Type
  5944 ;;                  4   57[BANK0 ] unsigned char 
  5945 ;; Registers used:
  5946 ;;		wreg, status,2, status,0
  5947 ;; Tracked objects:
  5948 ;;		On entry : 0/0
  5949 ;;		On exit  : 0/0
  5950 ;;		Unchanged: 0/0
  5951 ;; Data sizes:     COMMON   BANK0   BANK1   BANK2   BANK3   BANK4   BANK5   BANK6
  5952 ;;      Params:         0       8       0       0       0       0       0       0
  5953 ;;      Locals:         0       4       0       0       0       0       0       0
  5954 ;;      Temps:          0       8       0       0       0       0       0       0
  5955 ;;      Totals:         0      20       0       0       0       0       0       0
  5956 ;;Total ram usage:       20 bytes
  5957 ;; Hardware stack levels used: 1
  5958 ;; Hardware stack levels required when called: 3
  5959 ;; This function calls:
  5960 ;;		Nothing
  5961 ;; This function is called by:
  5962 ;;		_upd_disp
  5963 ;;		_get_avg_temp
  5964 ;;		_upd_PWM
  5965 ;;		___flsub
  5966 ;; This function uses a non-reentrant model
  5967 ;;
  5968                           
  5969     04F8                     ___fladd:	
  5970                           ;psect for function ___fladd
  5971                           
  5972     04F8                     l1770:	
  5973                           ;incstack = 0
  5974                           ; Regs used in ___fladd: [wreg+status,2+status,0]
  5975                           
  5976     04F8  0020               	movlb	0	; select bank0
  5977     04F9  085C               	movf	___fladd@b+3,w
  5978     04FA  3980               	andlw	128
  5979     04FB  00E9               	movwf	___fladd@signs
  5980     04FC                     l1772:
  5981     04FC  355C               	lslf	___fladd@b+3,w
  5982     04FD  00EB               	movwf	___fladd@bexp
  5983     04FE                     l1774:
  5984     04FE  1FDB               	btfss	___fladd@b+2,7
  5985     04FF  2D01               	goto	u1781
  5986     0500  2D02               	goto	u1780
  5987     0501                     u1781:
  5988     0501  2D03               	goto	l1778
  5989     0502                     u1780:
  5990     0502                     l1776:
  5991     0502  146B               	bsf	___fladd@bexp,0
  5992     0503                     l1778:
  5993     0503  086B               	movf	___fladd@bexp,w
  5994     0504  1903               	btfsc	3,2
  5995     0505  2D07               	goto	u1791
  5996     0506  2D08               	goto	u1790
  5997     0507                     u1791:
  5998     0507  2D18               	goto	l1788
  5999     0508                     u1790:
  6000     0508                     l1780:
  6001     0508  0A6B               	incf	___fladd@bexp,w
  6002     0509  1D03               	btfss	3,2
  6003     050A  2D0C               	goto	u1801
  6004     050B  2D0D               	goto	u1800
  6005     050C                     u1801:
  6006     050C  2D15               	goto	l1784
  6007     050D                     u1800:
  6008     050D                     l1782:
  6009     050D  3000               	movlw	0
  6010     050E  00DC               	movwf	___fladd@b+3
  6011     050F  3000               	movlw	0
  6012     0510  00DB               	movwf	___fladd@b+2
  6013     0511  3000               	movlw	0
  6014     0512  00DA               	movwf	___fladd@b+1
  6015     0513  3000               	movlw	0
  6016     0514  00D9               	movwf	___fladd@b
  6017     0515                     l1784:
  6018     0515  17DB               	bsf	___fladd@b+2,7
  6019     0516                     l1786:
  6020     0516  01DC               	clrf	___fladd@b+3
  6021     0517  2D20               	goto	l1790
  6022     0518                     l1788:
  6023     0518  3000               	movlw	0
  6024     0519  00DC               	movwf	___fladd@b+3
  6025     051A  3000               	movlw	0
  6026     051B  00DB               	movwf	___fladd@b+2
  6027     051C  3000               	movlw	0
  6028     051D  00DA               	movwf	___fladd@b+1
  6029     051E  3000               	movlw	0
  6030     051F  00D9               	movwf	___fladd@b
  6031     0520                     l1790:
  6032     0520  0860               	movf	___fladd@a+3,w
  6033     0521  3980               	andlw	128
  6034     0522  00EA               	movwf	___fladd@aexp
  6035     0523                     l1792:
  6036     0523  086A               	movf	___fladd@aexp,w
  6037     0524  0669               	xorwf	___fladd@signs,w
  6038     0525  1903               	skipnz
  6039     0526  2D28               	goto	u1811
  6040     0527  2D29               	goto	u1810
  6041     0528                     u1811:
  6042     0528  2D2A               	goto	l1796
  6043     0529                     u1810:
  6044     0529                     l1794:
  6045     0529  1769               	bsf	___fladd@signs,6
  6046     052A                     l1796:
  6047     052A  3560               	lslf	___fladd@a+3,w
  6048     052B  00EA               	movwf	___fladd@aexp
  6049     052C                     l1798:
  6050     052C  1FDF               	btfss	___fladd@a+2,7
  6051     052D  2D2F               	goto	u1821
  6052     052E  2D30               	goto	u1820
  6053     052F                     u1821:
  6054     052F  2D31               	goto	l1802
  6055     0530                     u1820:
  6056     0530                     l1800:
  6057     0530  146A               	bsf	___fladd@aexp,0
  6058     0531                     l1802:
  6059     0531  086A               	movf	___fladd@aexp,w
  6060     0532  1903               	btfsc	3,2
  6061     0533  2D35               	goto	u1831
  6062     0534  2D36               	goto	u1830
  6063     0535                     u1831:
  6064     0535  2D46               	goto	l1812
  6065     0536                     u1830:
  6066     0536                     l1804:
  6067     0536  0A6A               	incf	___fladd@aexp,w
  6068     0537  1D03               	btfss	3,2
  6069     0538  2D3A               	goto	u1841
  6070     0539  2D3B               	goto	u1840
  6071     053A                     u1841:
  6072     053A  2D43               	goto	l1808
  6073     053B                     u1840:
  6074     053B                     l1806:
  6075     053B  3000               	movlw	0
  6076     053C  00E0               	movwf	___fladd@a+3
  6077     053D  3000               	movlw	0
  6078     053E  00DF               	movwf	___fladd@a+2
  6079     053F  3000               	movlw	0
  6080     0540  00DE               	movwf	___fladd@a+1
  6081     0541  3000               	movlw	0
  6082     0542  00DD               	movwf	___fladd@a
  6083     0543                     l1808:
  6084     0543  17DF               	bsf	___fladd@a+2,7
  6085     0544                     l1810:
  6086     0544  01E0               	clrf	___fladd@a+3
  6087     0545  2D4E               	goto	l653
  6088     0546                     l1812:
  6089     0546  3000               	movlw	0
  6090     0547  00E0               	movwf	___fladd@a+3
  6091     0548  3000               	movlw	0
  6092     0549  00DF               	movwf	___fladd@a+2
  6093     054A  3000               	movlw	0
  6094     054B  00DE               	movwf	___fladd@a+1
  6095     054C  3000               	movlw	0
  6096     054D  00DD               	movwf	___fladd@a
  6097     054E                     l653:
  6098     054E  086B               	movf	___fladd@bexp,w
  6099     054F  026A               	subwf	___fladd@aexp,w
  6100     0550  1803               	skipnc
  6101     0551  2D53               	goto	u1851
  6102     0552  2D54               	goto	u1850
  6103     0553                     u1851:
  6104     0553  2D7A               	goto	l1848
  6105     0554                     u1850:
  6106     0554                     l1814:
  6107     0554  1F69               	btfss	___fladd@signs,6
  6108     0555  2D57               	goto	u1861
  6109     0556  2D58               	goto	u1860
  6110     0557                     u1861:
  6111     0557  2D5C               	goto	l1818
  6112     0558                     u1860:
  6113     0558                     l1816:
  6114     0558  3080               	movlw	128
  6115     0559  00E1               	movwf	??___fladd
  6116     055A  0861               	movf	??___fladd,w
  6117     055B  06E9               	xorwf	___fladd@signs,f
  6118     055C                     l1818:
  6119     055C  086B               	movf	___fladd@bexp,w
  6120     055D  00EC               	movwf	___fladd@grs
  6121     055E                     l1820:
  6122     055E  086A               	movf	___fladd@aexp,w
  6123     055F  00EB               	movwf	___fladd@bexp
  6124     0560                     l1822:
  6125     0560  086C               	movf	___fladd@grs,w
  6126     0561  00EA               	movwf	___fladd@aexp
  6127     0562                     l1824:
  6128     0562  0859               	movf	___fladd@b,w
  6129     0563  00EC               	movwf	___fladd@grs
  6130     0564                     l1826:
  6131     0564  085D               	movf	___fladd@a,w
  6132     0565  00D9               	movwf	___fladd@b
  6133     0566                     l1828:
  6134     0566  086C               	movf	___fladd@grs,w
  6135     0567  00DD               	movwf	___fladd@a
  6136     0568                     l1830:
  6137     0568  085A               	movf	___fladd@b+1,w
  6138     0569  00EC               	movwf	___fladd@grs
  6139     056A                     l1832:
  6140     056A  085E               	movf	___fladd@a+1,w
  6141     056B  00DA               	movwf	___fladd@b+1
  6142     056C                     l1834:
  6143     056C  086C               	movf	___fladd@grs,w
  6144     056D  00DE               	movwf	___fladd@a+1
  6145     056E                     l1836:
  6146     056E  085B               	movf	___fladd@b+2,w
  6147     056F  00EC               	movwf	___fladd@grs
  6148     0570                     l1838:
  6149     0570  085F               	movf	___fladd@a+2,w
  6150     0571  00DB               	movwf	___fladd@b+2
  6151     0572                     l1840:
  6152     0572  086C               	movf	___fladd@grs,w
  6153     0573  00DF               	movwf	___fladd@a+2
  6154     0574                     l1842:
  6155     0574  085C               	movf	___fladd@b+3,w
  6156     0575  00EC               	movwf	___fladd@grs
  6157     0576                     l1844:
  6158     0576  0860               	movf	___fladd@a+3,w
  6159     0577  00DC               	movwf	___fladd@b+3
  6160     0578                     l1846:
  6161     0578  086C               	movf	___fladd@grs,w
  6162     0579  00E0               	movwf	___fladd@a+3
  6163     057A                     l1848:
  6164     057A  01EC               	clrf	___fladd@grs
  6165     057B                     l1850:
  6166     057B  086A               	movf	___fladd@aexp,w
  6167     057C  00E1               	movwf	??___fladd
  6168     057D  01E2               	clrf	??___fladd+1
  6169     057E  0862               	movf	??___fladd+1,w
  6170     057F  00E4               	movwf	??___fladd+3
  6171     0580  086B               	movf	___fladd@bexp,w
  6172     0581  0261               	subwf	??___fladd,w
  6173     0582  00E3               	movwf	??___fladd+2
  6174     0583  1C03               	skipc
  6175     0584  03E4               	decf	??___fladd+3,f
  6176     0585  0864               	movf	??___fladd+3,w
  6177     0586  3A80               	xorlw	128
  6178     0587  00E5               	movwf	??___fladd+4
  6179     0588  3080               	movlw	128
  6180     0589  0265               	subwf	??___fladd+4,w
  6181     058A  1D03               	skipz
  6182     058B  2D8E               	goto	u1875
  6183     058C  301A               	movlw	26
  6184     058D  0263               	subwf	??___fladd+2,w
  6185     058E                     u1875:
  6186     058E  1C03               	skipc
  6187     058F  2D91               	goto	u1871
  6188     0590  2D92               	goto	u1870
  6189     0591                     u1871:
  6190     0591  2DC4               	goto	l1866
  6191     0592                     u1870:
  6192     0592                     l1852:
  6193     0592  0020               	movlb	0	; select bank0
  6194     0593  085C               	movf	___fladd@b+3,w
  6195     0594  045B               	iorwf	___fladd@b+2,w
  6196     0595  045A               	iorwf	___fladd@b+1,w
  6197     0596  0459               	iorwf	___fladd@b,w
  6198     0597  1D03               	skipz
  6199     0598  2D9A               	goto	u1881
  6200     0599  2D9C               	goto	u1880
  6201     059A                     u1881:
  6202     059A  3001               	movlw	1
  6203     059B  2D9D               	goto	u1890
  6204     059C                     u1880:
  6205     059C  3000               	movlw	0
  6206     059D                     u1890:
  6207     059D  00EC               	movwf	___fladd@grs
  6208     059E  3000               	movlw	0
  6209     059F  00DC               	movwf	___fladd@b+3
  6210     05A0  3000               	movlw	0
  6211     05A1  00DB               	movwf	___fladd@b+2
  6212     05A2  3000               	movlw	0
  6213     05A3  00DA               	movwf	___fladd@b+1
  6214     05A4  3000               	movlw	0
  6215     05A5  00D9               	movwf	___fladd@b
  6216     05A6  086A               	movf	___fladd@aexp,w
  6217     05A7  00EB               	movwf	___fladd@bexp
  6218     05A8  2DCB               	goto	l657
  6219     05A9                     l659:
  6220     05A9  1C6C               	btfss	___fladd@grs,0
  6221     05AA  2DAC               	goto	u1901
  6222     05AB  2DAD               	goto	u1900
  6223     05AC                     u1901:
  6224     05AC  2DB1               	goto	l1856
  6225     05AD                     u1900:
  6226     05AD                     l1854:
  6227     05AD  366C               	lsrf	___fladd@grs,w
  6228     05AE  3801               	iorlw	1
  6229     05AF  00EC               	movwf	___fladd@grs
  6230     05B0  2DB3               	goto	l1858
  6231     05B1                     l1856:
  6232     05B1  1003               	clrc
  6233     05B2  0CEC               	rrf	___fladd@grs,f
  6234     05B3                     l1858:
  6235     05B3  1C59               	btfss	___fladd@b,0
  6236     05B4  2DB6               	goto	u1911
  6237     05B5  2DB7               	goto	u1910
  6238     05B6                     u1911:
  6239     05B6  2DB8               	goto	l1862
  6240     05B7                     u1910:
  6241     05B7                     l1860:
  6242     05B7  17EC               	bsf	___fladd@grs,7
  6243     05B8                     l1862:
  6244     05B8  3001               	movlw	1
  6245     05B9  00E1               	movwf	??___fladd
  6246     05BA                     u1925:
  6247     05BA  37DC               	asrf	___fladd@b+3,f
  6248     05BB  0CDB               	rrf	___fladd@b+2,f
  6249     05BC  0CDA               	rrf	___fladd@b+1,f
  6250     05BD  0CD9               	rrf	___fladd@b,f
  6251     05BE  0BE1               	decfsz	??___fladd& (0+127),f
  6252     05BF  2DBA               	goto	u1925
  6253     05C0                     l1864:
  6254     05C0  3001               	movlw	1
  6255     05C1  00E1               	movwf	??___fladd
  6256     05C2  0861               	movf	??___fladd,w
  6257     05C3  07EB               	addwf	___fladd@bexp,f
  6258     05C4                     l1866:
  6259     05C4  0020               	movlb	0	; select bank0
  6260     05C5  086A               	movf	___fladd@aexp,w
  6261     05C6  026B               	subwf	___fladd@bexp,w
  6262     05C7  1C03               	skipc
  6263     05C8  2DCA               	goto	u1931
  6264     05C9  2DCB               	goto	u1930
  6265     05CA                     u1931:
  6266     05CA  2DA9               	goto	l659
  6267     05CB                     u1930:
  6268     05CB                     l657:
  6269     05CB  1B69               	btfsc	___fladd@signs,6
  6270     05CC  2DCE               	goto	u1941
  6271     05CD  2DCF               	goto	u1940
  6272     05CE                     u1941:
  6273     05CE  2E05               	goto	l1892
  6274     05CF                     u1940:
  6275     05CF                     l1868:
  6276     05CF  086B               	movf	___fladd@bexp,w
  6277     05D0  1D03               	btfss	3,2
  6278     05D1  2DD3               	goto	u1951
  6279     05D2  2DD4               	goto	u1950
  6280     05D3                     u1951:
  6281     05D3  2DDD               	goto	l1874
  6282     05D4                     u1950:
  6283     05D4                     l1870:
  6284     05D4  3000               	movlw	0
  6285     05D5  00DC               	movwf	?___fladd+3
  6286     05D6  3000               	movlw	0
  6287     05D7  00DB               	movwf	?___fladd+2
  6288     05D8  3000               	movlw	0
  6289     05D9  00DA               	movwf	?___fladd+1
  6290     05DA  3000               	movlw	0
  6291     05DB  00D9               	movwf	?___fladd
  6292     05DC  2EFF               	goto	l666
  6293     05DD                     l1874:
  6294     05DD  085D               	movf	___fladd@a,w
  6295     05DE  07D9               	addwf	___fladd@b,f
  6296     05DF  085E               	movf	___fladd@a+1,w
  6297     05E0  3DDA               	addwfc	___fladd@b+1,f
  6298     05E1  085F               	movf	___fladd@a+2,w
  6299     05E2  3DDB               	addwfc	___fladd@b+2,f
  6300     05E3  0860               	movf	___fladd@a+3,w
  6301     05E4  3DDC               	addwfc	___fladd@b+3,f
  6302     05E5                     l1876:
  6303     05E5  1C5C               	btfss	___fladd@b+3,0
  6304     05E6  2DE8               	goto	u1961
  6305     05E7  2DE9               	goto	u1960
  6306     05E8                     u1961:
  6307     05E8  2E91               	goto	l1926
  6308     05E9                     u1960:
  6309     05E9                     l1878:
  6310     05E9  1C6C               	btfss	___fladd@grs,0
  6311     05EA  2DEC               	goto	u1971
  6312     05EB  2DED               	goto	u1970
  6313     05EC                     u1971:
  6314     05EC  2DF1               	goto	l1882
  6315     05ED                     u1970:
  6316     05ED                     l1880:
  6317     05ED  366C               	lsrf	___fladd@grs,w
  6318     05EE  3801               	iorlw	1
  6319     05EF  00EC               	movwf	___fladd@grs
  6320     05F0  2DF3               	goto	l1884
  6321     05F1                     l1882:
  6322     05F1  1003               	clrc
  6323     05F2  0CEC               	rrf	___fladd@grs,f
  6324     05F3                     l1884:
  6325     05F3  1C59               	btfss	___fladd@b,0
  6326     05F4  2DF6               	goto	u1981
  6327     05F5  2DF7               	goto	u1980
  6328     05F6                     u1981:
  6329     05F6  2DF8               	goto	l1888
  6330     05F7                     u1980:
  6331     05F7                     l1886:
  6332     05F7  17EC               	bsf	___fladd@grs,7
  6333     05F8                     l1888:
  6334     05F8  3001               	movlw	1
  6335     05F9  00E1               	movwf	??___fladd
  6336     05FA                     u1995:
  6337     05FA  37DC               	asrf	___fladd@b+3,f
  6338     05FB  0CDB               	rrf	___fladd@b+2,f
  6339     05FC  0CDA               	rrf	___fladd@b+1,f
  6340     05FD  0CD9               	rrf	___fladd@b,f
  6341     05FE  0BE1               	decfsz	??___fladd& (0+127),f
  6342     05FF  2DFA               	goto	u1995
  6343     0600                     l1890:
  6344     0600  3001               	movlw	1
  6345     0601  00E1               	movwf	??___fladd
  6346     0602  0861               	movf	??___fladd,w
  6347     0603  07EB               	addwf	___fladd@bexp,f
  6348     0604  2E91               	goto	l1926
  6349     0605                     l1892:
  6350     0605  085C               	movf	___fladd@b+3,w
  6351     0606  3A80               	xorlw	128
  6352     0607  00E1               	movwf	??___fladd
  6353     0608  0860               	movf	___fladd@a+3,w
  6354     0609  3A80               	xorlw	128
  6355     060A  0261               	subwf	??___fladd,w
  6356     060B  1D03               	skipz
  6357     060C  2E17               	goto	u2003
  6358     060D  085F               	movf	___fladd@a+2,w
  6359     060E  025B               	subwf	___fladd@b+2,w
  6360     060F  1D03               	skipz
  6361     0610  2E17               	goto	u2003
  6362     0611  085E               	movf	___fladd@a+1,w
  6363     0612  025A               	subwf	___fladd@b+1,w
  6364     0613  1D03               	skipz
  6365     0614  2E17               	goto	u2003
  6366     0615  085D               	movf	___fladd@a,w
  6367     0616  0259               	subwf	___fladd@b,w
  6368     0617                     u2003:
  6369     0617  1803               	skipnc
  6370     0618  2E1A               	goto	u2001
  6371     0619  2E1B               	goto	u2000
  6372     061A                     u2001:
  6373     061A  2E53               	goto	l1902
  6374     061B                     u2000:
  6375     061B                     l1894:
  6376     061B  30FF               	movlw	255
  6377     061C  00E1               	movwf	??___fladd
  6378     061D  30FF               	movlw	255
  6379     061E  00E2               	movwf	??___fladd+1
  6380     061F  30FF               	movlw	255
  6381     0620  00E3               	movwf	??___fladd+2
  6382     0621  30FF               	movlw	255
  6383     0622  00E4               	movwf	??___fladd+3
  6384     0623  0859               	movf	___fladd@b,w
  6385     0624  025D               	subwf	___fladd@a,w
  6386     0625  00E5               	movwf	??___fladd+4
  6387     0626  085A               	movf	___fladd@b+1,w
  6388     0627  3B5E               	subwfb	___fladd@a+1,w
  6389     0628  00E6               	movwf	??___fladd+5
  6390     0629  085B               	movf	___fladd@b+2,w
  6391     062A  3B5F               	subwfb	___fladd@a+2,w
  6392     062B  00E7               	movwf	??___fladd+6
  6393     062C  085C               	movf	___fladd@b+3,w
  6394     062D  3B60               	subwfb	___fladd@a+3,w
  6395     062E  00E8               	movwf	??___fladd+7
  6396     062F  0865               	movf	??___fladd+4,w
  6397     0630  07E1               	addwf	??___fladd,f
  6398     0631  0866               	movf	??___fladd+5,w
  6399     0632  3DE2               	addwfc	??___fladd+1,f
  6400     0633  0867               	movf	??___fladd+6,w
  6401     0634  3DE3               	addwfc	??___fladd+2,f
  6402     0635  0868               	movf	??___fladd+7,w
  6403     0636  3DE4               	addwfc	??___fladd+3,f
  6404     0637  0864               	movf	??___fladd+3,w
  6405     0638  00DC               	movwf	___fladd@b+3
  6406     0639  0863               	movf	??___fladd+2,w
  6407     063A  00DB               	movwf	___fladd@b+2
  6408     063B  0862               	movf	??___fladd+1,w
  6409     063C  00DA               	movwf	___fladd@b+1
  6410     063D  0861               	movf	??___fladd,w
  6411     063E  00D9               	movwf	___fladd@b
  6412     063F                     l1896:
  6413     063F  3080               	movlw	128
  6414     0640  00E1               	movwf	??___fladd
  6415     0641  0861               	movf	??___fladd,w
  6416     0642  06E9               	xorwf	___fladd@signs,f
  6417     0643  09EC               	comf	___fladd@grs,f
  6418     0644  0AEC               	incf	___fladd@grs,f
  6419     0645                     l1898:
  6420     0645  086C               	movf	___fladd@grs,w
  6421     0646  1D03               	btfss	3,2
  6422     0647  2E49               	goto	u2011
  6423     0648  2E4A               	goto	u2010
  6424     0649                     u2011:
  6425     0649  2E5B               	goto	l674
  6426     064A                     u2010:
  6427     064A                     l1900:
  6428     064A  3001               	movlw	1
  6429     064B  07D9               	addwf	___fladd@b,f
  6430     064C  3000               	movlw	0
  6431     064D  3DDA               	addwfc	___fladd@b+1,f
  6432     064E  3000               	movlw	0
  6433     064F  3DDB               	addwfc	___fladd@b+2,f
  6434     0650  3000               	movlw	0
  6435     0651  3DDC               	addwfc	___fladd@b+3,f
  6436     0652  2E5B               	goto	l674
  6437     0653                     l1902:
  6438     0653  085D               	movf	___fladd@a,w
  6439     0654  02D9               	subwf	___fladd@b,f
  6440     0655  085E               	movf	___fladd@a+1,w
  6441     0656  3BDA               	subwfb	___fladd@b+1,f
  6442     0657  085F               	movf	___fladd@a+2,w
  6443     0658  3BDB               	subwfb	___fladd@b+2,f
  6444     0659  0860               	movf	___fladd@a+3,w
  6445     065A  3BDC               	subwfb	___fladd@b+3,f
  6446     065B                     l674:
  6447     065B  085C               	movf	___fladd@b+3,w
  6448     065C  045B               	iorwf	___fladd@b+2,w
  6449     065D  045A               	iorwf	___fladd@b+1,w
  6450     065E  0459               	iorwf	___fladd@b,w
  6451     065F  1D03               	skipz
  6452     0660  2E62               	goto	u2021
  6453     0661  2E63               	goto	u2020
  6454     0662                     u2021:
  6455     0662  2E8D               	goto	l1924
  6456     0663                     u2020:
  6457     0663                     l1904:
  6458     0663  086C               	movf	___fladd@grs,w
  6459     0664  1D03               	btfss	3,2
  6460     0665  2E67               	goto	u2031
  6461     0666  2E68               	goto	u2030
  6462     0667                     u2031:
  6463     0667  2E8D               	goto	l1924
  6464     0668                     u2030:
  6465     0668                     l1906:
  6466     0668  3000               	movlw	0
  6467     0669  00DC               	movwf	?___fladd+3
  6468     066A  3000               	movlw	0
  6469     066B  00DB               	movwf	?___fladd+2
  6470     066C  3000               	movlw	0
  6471     066D  00DA               	movwf	?___fladd+1
  6472     066E  3000               	movlw	0
  6473     066F  00D9               	movwf	?___fladd
  6474     0670  2EFF               	goto	l666
  6475     0671                     l1910:
  6476     0671  3001               	movlw	1
  6477     0672                     u2045:
  6478     0672  35D9               	lslf	___fladd@b,f
  6479     0673  0DDA               	rlf	___fladd@b+1,f
  6480     0674  0DDB               	rlf	___fladd@b+2,f
  6481     0675  0DDC               	rlf	___fladd@b+3,f
  6482     0676  0B89               	decfsz	9,f
  6483     0677  2E72               	goto	u2045
  6484     0678                     l1912:
  6485     0678  1FEC               	btfss	___fladd@grs,7
  6486     0679  2E7B               	goto	u2051
  6487     067A  2E7C               	goto	u2050
  6488     067B                     u2051:
  6489     067B  2E7D               	goto	l678
  6490     067C                     u2050:
  6491     067C                     l1914:
  6492     067C  1459               	bsf	___fladd@b,0
  6493     067D                     l678:
  6494     067D  1C6C               	btfss	___fladd@grs,0
  6495     067E  2E80               	goto	u2061
  6496     067F  2E81               	goto	u2060
  6497     0680                     u2061:
  6498     0680  2E84               	goto	l1918
  6499     0681                     u2060:
  6500     0681                     l1916:
  6501     0681  1403               	setc
  6502     0682  0DEC               	rlf	___fladd@grs,f
  6503     0683  2E86               	goto	l1920
  6504     0684                     l1918:
  6505     0684  1003               	clrc
  6506     0685  0DEC               	rlf	___fladd@grs,f
  6507     0686                     l1920:
  6508     0686  086B               	movf	___fladd@bexp,w
  6509     0687  1903               	btfsc	3,2
  6510     0688  2E8A               	goto	u2071
  6511     0689  2E8B               	goto	u2070
  6512     068A                     u2071:
  6513     068A  2E8D               	goto	l1924
  6514     068B                     u2070:
  6515     068B                     l1922:
  6516     068B  3001               	movlw	1
  6517     068C  02EB               	subwf	___fladd@bexp,f
  6518     068D                     l1924:
  6519     068D  1FDB               	btfss	___fladd@b+2,7
  6520     068E  2E90               	goto	u2081
  6521     068F  2E91               	goto	u2080
  6522     0690                     u2081:
  6523     0690  2E71               	goto	l1910
  6524     0691                     u2080:
  6525     0691                     l1926:
  6526     0691  01EA               	clrf	___fladd@aexp
  6527     0692                     l1928:
  6528     0692  1FEC               	btfss	___fladd@grs,7
  6529     0693  2E95               	goto	u2091
  6530     0694  2E96               	goto	u2090
  6531     0695                     u2091:
  6532     0695  2EA4               	goto	l1936
  6533     0696                     u2090:
  6534     0696                     l1930:
  6535     0696  086C               	movf	___fladd@grs,w
  6536     0697  397F               	andlw	127
  6537     0698  1903               	btfsc	3,2
  6538     0699  2E9B               	goto	u2101
  6539     069A  2E9C               	goto	u2100
  6540     069B                     u2101:
  6541     069B  2E9F               	goto	l684
  6542     069C                     u2100:
  6543     069C                     l1932:
  6544     069C  01EA               	clrf	___fladd@aexp
  6545     069D  0AEA               	incf	___fladd@aexp,f
  6546     069E  2EA4               	goto	l1936
  6547     069F                     l684:
  6548     069F  1C59               	btfss	___fladd@b,0
  6549     06A0  2EA2               	goto	u2111
  6550     06A1  2EA3               	goto	u2110
  6551     06A2                     u2111:
  6552     06A2  2EA4               	goto	l1936
  6553     06A3                     u2110:
  6554     06A3  2E9C               	goto	l1932
  6555     06A4                     l1936:
  6556     06A4  086A               	movf	___fladd@aexp,w
  6557     06A5  1903               	btfsc	3,2
  6558     06A6  2EA8               	goto	u2121
  6559     06A7  2EA9               	goto	u2120
  6560     06A8                     u2121:
  6561     06A8  2ED6               	goto	l687
  6562     06A9                     u2120:
  6563     06A9                     l1938:
  6564     06A9  3001               	movlw	1
  6565     06AA  07D9               	addwf	___fladd@b,f
  6566     06AB  3000               	movlw	0
  6567     06AC  3DDA               	addwfc	___fladd@b+1,f
  6568     06AD  3000               	movlw	0
  6569     06AE  3DDB               	addwfc	___fladd@b+2,f
  6570     06AF  3000               	movlw	0
  6571     06B0  3DDC               	addwfc	___fladd@b+3,f
  6572     06B1                     l1940:
  6573     06B1  1C5C               	btfss	___fladd@b+3,0
  6574     06B2  2EB4               	goto	u2131
  6575     06B3  2EB5               	goto	u2130
  6576     06B4                     u2131:
  6577     06B4  2ED6               	goto	l687
  6578     06B5                     u2130:
  6579     06B5                     l1942:
  6580     06B5  0859               	movf	___fladd@b,w
  6581     06B6  00E1               	movwf	??___fladd
  6582     06B7  085A               	movf	___fladd@b+1,w
  6583     06B8  00E2               	movwf	??___fladd+1
  6584     06B9  085B               	movf	___fladd@b+2,w
  6585     06BA  00E3               	movwf	??___fladd+2
  6586     06BB  085C               	movf	___fladd@b+3,w
  6587     06BC  00E4               	movwf	??___fladd+3
  6588     06BD  3001               	movlw	1
  6589     06BE  00E5               	movwf	??___fladd+4
  6590     06BF                     u2145:
  6591     06BF  37E4               	asrf	??___fladd+3,f
  6592     06C0  0CE3               	rrf	??___fladd+2,f
  6593     06C1  0CE2               	rrf	??___fladd+1,f
  6594     06C2  0CE1               	rrf	??___fladd,f
  6595     06C3                     u2140:
  6596     06C3  0BE5               	decfsz	??___fladd+4,f
  6597     06C4  2EBF               	goto	u2145
  6598     06C5  0864               	movf	??___fladd+3,w
  6599     06C6  00DC               	movwf	___fladd@b+3
  6600     06C7  0863               	movf	??___fladd+2,w
  6601     06C8  00DB               	movwf	___fladd@b+2
  6602     06C9  0862               	movf	??___fladd+1,w
  6603     06CA  00DA               	movwf	___fladd@b+1
  6604     06CB  0861               	movf	??___fladd,w
  6605     06CC  00D9               	movwf	___fladd@b
  6606     06CD  0A6B               	incf	___fladd@bexp,w
  6607     06CE  1903               	btfsc	3,2
  6608     06CF  2ED1               	goto	u2151
  6609     06D0  2ED2               	goto	u2150
  6610     06D1                     u2151:
  6611     06D1  2ED6               	goto	l687
  6612     06D2                     u2150:
  6613     06D2                     l1944:
  6614     06D2  3001               	movlw	1
  6615     06D3  00E1               	movwf	??___fladd
  6616     06D4  0861               	movf	??___fladd,w
  6617     06D5  07EB               	addwf	___fladd@bexp,f
  6618     06D6                     l687:
  6619     06D6  0A6B               	incf	___fladd@bexp,w
  6620     06D7  1903               	btfsc	3,2
  6621     06D8  2EDA               	goto	u2161
  6622     06D9  2EDB               	goto	u2160
  6623     06DA                     u2161:
  6624     06DA  2EE0               	goto	l1948
  6625     06DB                     u2160:
  6626     06DB                     l1946:
  6627     06DB  086B               	movf	___fladd@bexp,w
  6628     06DC  1D03               	btfss	3,2
  6629     06DD  2EDF               	goto	u2171
  6630     06DE  2EE0               	goto	u2170
  6631     06DF                     u2171:
  6632     06DF  2EEE               	goto	l1954
  6633     06E0                     u2170:
  6634     06E0                     l1948:
  6635     06E0  3000               	movlw	0
  6636     06E1  00DC               	movwf	___fladd@b+3
  6637     06E2  3000               	movlw	0
  6638     06E3  00DB               	movwf	___fladd@b+2
  6639     06E4  3000               	movlw	0
  6640     06E5  00DA               	movwf	___fladd@b+1
  6641     06E6  3000               	movlw	0
  6642     06E7  00D9               	movwf	___fladd@b
  6643     06E8                     l1950:
  6644     06E8  086B               	movf	___fladd@bexp,w
  6645     06E9  1D03               	btfss	3,2
  6646     06EA  2EEC               	goto	u2181
  6647     06EB  2EED               	goto	u2180
  6648     06EC                     u2181:
  6649     06EC  2EEE               	goto	l1954
  6650     06ED                     u2180:
  6651     06ED                     l1952:
  6652     06ED  01E9               	clrf	___fladd@signs
  6653     06EE                     l1954:
  6654     06EE  1C6B               	btfss	___fladd@bexp,0
  6655     06EF  2EF1               	goto	u2191
  6656     06F0  2EF2               	goto	u2190
  6657     06F1                     u2191:
  6658     06F1  2EF4               	goto	l1958
  6659     06F2                     u2190:
  6660     06F2                     l1956:
  6661     06F2  17DB               	bsf	___fladd@b+2,7
  6662     06F3  2EF8               	goto	l695
  6663     06F4                     l1958:
  6664     06F4  307F               	movlw	127
  6665     06F5  00E1               	movwf	??___fladd
  6666     06F6  0861               	movf	??___fladd,w
  6667     06F7  05DB               	andwf	___fladd@b+2,f
  6668     06F8                     l695:
  6669     06F8  366B               	lsrf	___fladd@bexp,w
  6670     06F9  00DC               	movwf	___fladd@b+3
  6671     06FA                     l1960:
  6672     06FA  1FE9               	btfss	___fladd@signs,7
  6673     06FB  2EFD               	goto	u2201
  6674     06FC  2EFE               	goto	u2200
  6675     06FD                     u2201:
  6676     06FD  2EFF               	goto	l696
  6677     06FE                     u2200:
  6678     06FE                     l1962:
  6679     06FE  17DC               	bsf	___fladd@b+3,7
  6680     06FF                     l696:
  6681     06FF                     l666:
  6682     06FF  0008               	return
  6683     0700                     __end_of___fladd:
  6684                           
  6685                           	psect	text19
  6686     098A                     __ptext19:	
  6687 ;; *************** function _buff_put *****************
  6688 ;; Defined at:
  6689 ;;		line 118 in file "main.c"
  6690 ;; Parameters:    Size  Location     Type
  6691 ;;  dat             2    8[COMMON] unsigned short 
  6692 ;; Auto vars:     Size  Location     Type
  6693 ;;		None
  6694 ;; Return value:  Size  Location     Type
  6695 ;;                  1    wreg      void 
  6696 ;; Registers used:
  6697 ;;		wreg, fsr1l, fsr1h, status,2, status,0
  6698 ;; Tracked objects:
  6699 ;;		On entry : 0/0
  6700 ;;		On exit  : 0/0
  6701 ;;		Unchanged: 0/0
  6702 ;; Data sizes:     COMMON   BANK0   BANK1   BANK2   BANK3   BANK4   BANK5   BANK6
  6703 ;;      Params:         2       0       0       0       0       0       0       0
  6704 ;;      Locals:         0       0       0       0       0       0       0       0
  6705 ;;      Temps:          0       1       0       0       0       0       0       0
  6706 ;;      Totals:         2       1       0       0       0       0       0       0
  6707 ;;Total ram usage:        3 bytes
  6708 ;; Hardware stack levels used: 1
  6709 ;; Hardware stack levels required when called: 3
  6710 ;; This function calls:
  6711 ;;		Nothing
  6712 ;; This function is called by:
  6713 ;;		_main
  6714 ;; This function uses a non-reentrant model
  6715 ;;
  6716                           
  6717     098A                     _buff_put:	
  6718                           ;psect for function _buff_put
  6719                           
  6720     098A                     l2986:	
  6721                           ;incstack = 0
  6722                           ; Regs used in _buff_put: [wreg+fsr1l+fsr1h+status,2+status,0]
  6723                           
  6724                           
  6725                           ;main.c: 119:     temp_buffer[buff_index] = dat;
  6726     098A  357B               	lslf	_buff_index,w
  6727     098B  3E20               	addlw	(low (_temp_buffer| (0+256)))& (0+255)
  6728     098C  0086               	movwf	6
  6729     098D  3001               	movlw	1	; select bank2/3
  6730     098E  0087               	movwf	7
  6731     098F  0878               	movf	buff_put@dat,w
  6732     0990  3FC0               	movwi [0]fsr1
  6733     0991  0879               	movf	buff_put@dat+1,w
  6734     0992  3FC1               	movwi [1]fsr1
  6735     0993                     l2988:
  6736                           
  6737                           ;main.c: 120:     buff_index++;
  6738     0993  3001               	movlw	1
  6739     0994  0020               	movlb	0	; select bank0
  6740     0995  00A0               	movwf	??_buff_put
  6741     0996  0820               	movf	??_buff_put,w
  6742     0997  07FB               	addwf	_buff_index,f
  6743     0998                     l2990:
  6744                           
  6745                           ;main.c: 122:     if (buff_index == (20 - 1)) {
  6746     0998  3013               	movlw	19
  6747     0999  067B               	xorwf	_buff_index,w
  6748     099A  1D03               	btfss	3,2
  6749     099B  299D               	goto	u4081
  6750     099C  299E               	goto	u4080
  6751     099D                     u4081:
  6752     099D  29A2               	goto	l142
  6753     099E                     u4080:
  6754     099E                     l2992:
  6755                           
  6756                           ;main.c: 123:         buff_index = 0;
  6757     099E  01FB               	clrf	_buff_index
  6758     099F                     l2994:
  6759                           
  6760                           ;main.c: 124:         buff_full = 1;
  6761     099F  0021               	movlb	1	; select bank1
  6762     09A0  01D5               	clrf	_buff_full^(0+128)
  6763     09A1  0AD5               	incf	_buff_full^(0+128),f
  6764     09A2                     l142:
  6765     09A2  0008               	return
  6766     09A3                     __end_of_buff_put:
  6767                           
  6768                           	psect	intentry
  6769     0004                     __pintentry:	
  6770 ;; *************** function _ISR *****************
  6771 ;; Defined at:
  6772 ;;		line 218 in file "main.c"
  6773 ;; Parameters:    Size  Location     Type
  6774 ;;		None
  6775 ;; Auto vars:     Size  Location     Type
  6776 ;;		None
  6777 ;; Return value:  Size  Location     Type
  6778 ;;                  1    wreg      void 
  6779 ;; Registers used:
  6780 ;;		wreg, status,2, status,0, pclath, cstack
  6781 ;; Tracked objects:
  6782 ;;		On entry : 0/0
  6783 ;;		On exit  : 0/0
  6784 ;;		Unchanged: 0/0
  6785 ;; Data sizes:     COMMON   BANK0   BANK1   BANK2   BANK3   BANK4   BANK5   BANK6
  6786 ;;      Params:         0       0       0       0       0       0       0       0
  6787 ;;      Locals:         0       0       0       0       0       0       0       0
  6788 ;;      Temps:          0       0       0       0       0       0       0       0
  6789 ;;      Totals:         0       0       0       0       0       0       0       0
  6790 ;;Total ram usage:        0 bytes
  6791 ;; Hardware stack levels used: 1
  6792 ;; Hardware stack levels required when called: 2
  6793 ;; This function calls:
  6794 ;;		_ref_disp
  6795 ;; This function is called by:
  6796 ;;		Interrupt level 1
  6797 ;; This function uses a non-reentrant model
  6798 ;;
  6799                           
  6800     0004                     _ISR:
  6801                           
  6802                           ;incstack = 0
  6803     0004  147E               	bsf	int$flags,0	;set compiler interrupt flag (level 1)
  6804                           
  6805                           ; Regs used in _ISR: [wreg+status,2+status,0+pclath+cstack]
  6806     0005  3180               	pagesel	$
  6807     0006                     i1l2680:
  6808                           
  6809                           ;main.c: 220:     if (PIE0bits.TMR0IE && PIR0bits.TMR0IF) {
  6810     0006  0021               	movlb	1	; select bank1
  6811     0007  1E90               	btfss	16,5	;volatile
  6812     0008  280A               	goto	u346_21
  6813     0009  280B               	goto	u346_20
  6814     000A                     u346_21:
  6815     000A  2814               	goto	i1l177
  6816     000B                     u346_20:
  6817     000B                     i1l2682:
  6818     000B  0020               	movlb	0	; select bank0
  6819     000C  1E90               	btfss	16,5	;volatile
  6820     000D  280F               	goto	u347_21
  6821     000E  2810               	goto	u347_20
  6822     000F                     u347_21:
  6823     000F  2814               	goto	i1l177
  6824     0010                     u347_20:
  6825     0010                     i1l2684:
  6826                           
  6827                           ;main.c: 221:         flags.TC_read = 1;
  6828     0010  0021               	movlb	1	; select bank1
  6829     0011  1451               	bsf	_flags^(0+128),0
  6830                           
  6831                           ;main.c: 222:         PIR0bits.TMR0IF = 0;
  6832     0012  0020               	movlb	0	; select bank0
  6833     0013  1290               	bcf	16,5	;volatile
  6834     0014                     i1l177:	
  6835                           ;main.c: 223:     }
  6836                           
  6837                           
  6838                           ;main.c: 226:     if (PIE2bits.TMR4IE && PIR2bits.TMR4IF) {
  6839     0014  0021               	movlb	1	; select bank1
  6840     0015  1C92               	btfss	18,1	;volatile
  6841     0016  2818               	goto	u348_21
  6842     0017  2819               	goto	u348_20
  6843     0018                     u348_21:
  6844     0018  2823               	goto	i1l179
  6845     0019                     u348_20:
  6846     0019                     i1l2686:
  6847     0019  0020               	movlb	0	; select bank0
  6848     001A  1C92               	btfss	18,1	;volatile
  6849     001B  281D               	goto	u349_21
  6850     001C  281E               	goto	u349_20
  6851     001D                     u349_21:
  6852     001D  2823               	goto	i1l179
  6853     001E                     u349_20:
  6854     001E                     i1l2688:
  6855                           
  6856                           ;main.c: 227:         ref_disp();
  6857     001E  3189  21C3  3180   	fcall	_ref_disp
  6858     0021                     i1l2690:
  6859                           
  6860                           ;main.c: 228:         PIR2bits.TMR4IF = 0;
  6861     0021  0020               	movlb	0	; select bank0
  6862     0022  1092               	bcf	18,1	;volatile
  6863     0023                     i1l179:
  6864     0023  107E               	bcf	int$flags,0	;clear compiler interrupt flag (level 1)
  6865     0024  0009               	retfie
  6866     0025                     __end_of_ISR:
  6867                           
  6868                           	psect	text21
  6869     09C3                     __ptext21:	
  6870 ;; *************** function _ref_disp *****************
  6871 ;; Defined at:
  6872 ;;		line 129 in file "main.c"
  6873 ;; Parameters:    Size  Location     Type
  6874 ;;		None
  6875 ;; Auto vars:     Size  Location     Type
  6876 ;;		None
  6877 ;; Return value:  Size  Location     Type
  6878 ;;                  1    wreg      void 
  6879 ;; Registers used:
  6880 ;;		wreg, status,2, status,0, pclath, cstack
  6881 ;; Tracked objects:
  6882 ;;		On entry : 0/0
  6883 ;;		On exit  : 0/0
  6884 ;;		Unchanged: 0/0
  6885 ;; Data sizes:     COMMON   BANK0   BANK1   BANK2   BANK3   BANK4   BANK5   BANK6
  6886 ;;      Params:         0       0       0       0       0       0       0       0
  6887 ;;      Locals:         0       0       0       0       0       0       0       0
  6888 ;;      Temps:          1       0       0       0       0       0       0       0
  6889 ;;      Totals:         1       0       0       0       0       0       0       0
  6890 ;;Total ram usage:        1 bytes
  6891 ;; Hardware stack levels used: 1
  6892 ;; Hardware stack levels required when called: 1
  6893 ;; This function calls:
  6894 ;;		_SPI_out
  6895 ;; This function is called by:
  6896 ;;		_ISR
  6897 ;; This function uses a non-reentrant model
  6898 ;;
  6899                           
  6900     09C3                     _ref_disp:	
  6901                           ;psect for function _ref_disp
  6902                           
  6903     09C3                     i1l2476:	
  6904                           ;incstack = 0
  6905                           ; Regs used in _ref_disp: [wreg+status,2+status,0+pclath+cstack]
  6906                           
  6907                           
  6908                           ;main.c: 130:     if (!flags.disp_dig) {
  6909     09C3  0021               	movlb	1	; select bank1
  6910     09C4  1951               	btfsc	_flags^(0+128),2
  6911     09C5  29C7               	goto	u333_21
  6912     09C6  29C8               	goto	u333_20
  6913     09C7                     u333_21:
  6914     09C7  29CD               	goto	i1l2480
  6915     09C8                     u333_20:
  6916     09C8                     i1l2478:
  6917                           
  6918                           ;main.c: 131:         SPI_out(TEMPF_tens);
  6919     09C8  085A               	movf	_TEMPF_tens^(0+128),w
  6920     09C9  3189  2172  3189   	fcall	_SPI_out
  6921                           
  6922                           ;main.c: 132:     } else {
  6923     09CC  29D1               	goto	i1l2482
  6924     09CD                     i1l2480:
  6925                           
  6926                           ;main.c: 133:         SPI_out(TEMPF_ones);
  6927     09CD  085B               	movf	_TEMPF_ones^(0+128),w
  6928     09CE  3189  2172  3189   	fcall	_SPI_out
  6929     09D1                     i1l2482:
  6930                           
  6931                           ;main.c: 136:     LATCbits.LATC5 = 1;
  6932     09D1  0022               	movlb	2	; select bank2
  6933     09D2  168E               	bsf	14,5	;volatile
  6934     09D3                     i1l2484:
  6935                           
  6936                           ;main.c: 137:     LATCbits.LATC5 = 0;
  6937     09D3  128E               	bcf	14,5	;volatile
  6938     09D4                     i1l2486:
  6939                           
  6940                           ;main.c: 139:     flags.disp_dig ^= 1;
  6941     09D4  0021               	movlb	1	; select bank1
  6942     09D5  0C51               	rrf	_flags^(0+128),w
  6943     09D6  00F1               	movwf	??_ref_disp
  6944     09D7  0C71               	rrf	??_ref_disp,w
  6945     09D8  3901               	andlw	1
  6946     09D9  00F1               	movwf	??_ref_disp
  6947     09DA  3001               	movlw	1
  6948     09DB  06F1               	xorwf	??_ref_disp,f
  6949     09DC  0DF1               	rlf	??_ref_disp,f
  6950     09DD  0DF1               	rlf	??_ref_disp,f
  6951     09DE  0851               	movf	_flags^(0+128),w
  6952     09DF  0671               	xorwf	??_ref_disp,w
  6953     09E0  39FB               	andlw	-5
  6954     09E1  0671               	xorwf	??_ref_disp,w
  6955     09E2  00D1               	movwf	_flags^(0+128)
  6956     09E3                     i1l147:
  6957     09E3  0008               	return
  6958     09E4                     __end_of_ref_disp:
  6959                           
  6960                           	psect	text22
  6961     0972                     __ptext22:	
  6962 ;; *************** function _SPI_out *****************
  6963 ;; Defined at:
  6964 ;;		line 106 in file "main.c"
  6965 ;; Parameters:    Size  Location     Type
  6966 ;;  dat             1    wreg     unsigned char 
  6967 ;; Auto vars:     Size  Location     Type
  6968 ;;  dat             1    0[COMMON] unsigned char 
  6969 ;; Return value:  Size  Location     Type
  6970 ;;                  1    wreg      void 
  6971 ;; Registers used:
  6972 ;;		wreg
  6973 ;; Tracked objects:
  6974 ;;		On entry : 0/0
  6975 ;;		On exit  : 0/0
  6976 ;;		Unchanged: 0/0
  6977 ;; Data sizes:     COMMON   BANK0   BANK1   BANK2   BANK3   BANK4   BANK5   BANK6
  6978 ;;      Params:         0       0       0       0       0       0       0       0
  6979 ;;      Locals:         1       0       0       0       0       0       0       0
  6980 ;;      Temps:          0       0       0       0       0       0       0       0
  6981 ;;      Totals:         1       0       0       0       0       0       0       0
  6982 ;;Total ram usage:        1 bytes
  6983 ;; Hardware stack levels used: 1
  6984 ;; This function calls:
  6985 ;;		Nothing
  6986 ;; This function is called by:
  6987 ;;		_ref_disp
  6988 ;; This function uses a non-reentrant model
  6989 ;;
  6990                           
  6991     0972                     _SPI_out:	
  6992                           ;psect for function _SPI_out
  6993                           
  6994                           
  6995                           ;incstack = 0
  6996                           ; Regs used in _SPI_out: [wreg]
  6997                           ;SPI_out@dat stored from wreg
  6998     0972  00F0               	movwf	SPI_out@dat
  6999     0973                     i1l1984:
  7000                           
  7001                           ;main.c: 107:     SSP1BUF = dat;
  7002     0973  0870               	movf	SPI_out@dat,w
  7003     0974  0024               	movlb	4	; select bank4
  7004     0975  0091               	movwf	17	;volatile
  7005     0976                     i1l129:	
  7006                           ;main.c: 108:     while(!SSP1STATbits.BF);
  7007                           
  7008     0976  1C14               	btfss	20,0	;volatile
  7009     0977  2979               	goto	u225_21
  7010     0978  297A               	goto	u225_20
  7011     0979                     u225_21:
  7012     0979  2976               	goto	i1l129
  7013     097A                     u225_20:
  7014     097A                     i1l132:
  7015     097A  0008               	return
  7016     097B                     __end_of_SPI_out:
  7017     007E                     btemp	set	126	;btemp
  7018     007E                     int$flags	set	126
  7019     007E                     wtemp0	set	126
  7020                           
  7021                           	psect	config
  7022                           
  7023                           ;Config register CONFIG1 @ 0x8007
  7024                           ;	FEXTOSC External Oscillator mode Selection bits
  7025                           ;	FEXTOSC = OFF, Oscillator not enabled
  7026                           ;	Power-up default value for COSC bits
  7027                           ;	RSTOSC = HFINT1, HFINTOSC (1MHz)
  7028                           ;	Clock Out Enable bit
  7029                           ;	CLKOUTEN = OFF, CLKOUT function is disabled; I/O or oscillator function on OSC2
  7030                           ;	Clock Switch Enable bit
  7031                           ;	CSWEN = ON, Writing to NOSC and NDIV is allowed
  7032                           ;	Fail-Safe Clock Monitor Enable
  7033                           ;	FCMEN = ON, Fail-Safe Clock Monitor is enabled
  7034     8007                     	org	32775
  7035     8007  3FEC               	dw	16364
  7036                           
  7037                           ;Config register CONFIG2 @ 0x8008
  7038                           ;	Master Clear Enable bit
  7039                           ;	MCLRE = ON, MCLR/VPP pin function is MCLR; Weak pull-up enabled
  7040                           ;	Power-up Timer Enable bit
  7041                           ;	PWRTE = OFF, PWRT disabled
  7042                           ;	Watchdog Timer Enable bits
  7043                           ;	WDTE = OFF, WDT disabled; SWDTEN is ignored
  7044                           ;	Low-power BOR enable bit
  7045                           ;	LPBOREN = OFF, ULPBOR disabled
  7046                           ;	Brown-out Reset Enable bits
  7047                           ;	BOREN = OFF, Brown-out Reset disabled
  7048                           ;	Brown-out Reset Voltage selection bit
  7049                           ;	BORV = LOW, Brown-out voltage (Vbor) set to 2.45V
  7050                           ;	PPSLOCK bit One-Way Set Enable bit
  7051                           ;	PPS1WAY = ON, The PPSLOCK bit can be cleared and set only once; PPS registers remain l
      +                          ocked after one clear/set cycle
  7052                           ;	Stack Overflow/Underflow Reset Enable bit
  7053                           ;	STVREN = ON, Stack Overflow or Underflow will cause a Reset
  7054                           ;	Debugger enable bit
  7055                           ;	DEBUG = OFF, Background debugger disabled
  7056     8008                     	org	32776
  7057     8008  3F33               	dw	16179
  7058                           
  7059                           ;Config register CONFIG3 @ 0x8009
  7060                           ;	User NVM self-write protection bits
  7061                           ;	WRT = OFF, Write protection off
  7062                           ;	Low Voltage Programming Enable bit
  7063                           ;	LVP = OFF, High Voltage on MCLR/VPP must be used for programming.
  7064     8009                     	org	32777
  7065     8009  1FFF               	dw	8191
  7066                           
  7067                           ;Config register CONFIG4 @ 0x800A
  7068                           ;	User NVM Program Memory Code Protection bit
  7069                           ;	CP = OFF, User NVM code protection disabled
  7070                           ;	Data NVM Memory Code Protection bit
  7071                           ;	CPD = OFF, Data NVM code protection disabled
  7072     800A                     	org	32778
  7073     800A  3FFF               	dw	16383

Data Sizes:
    Strings     0
    Constant    0
    Data        6
    BSS         63
    Persistent  32
    Stack       0

Auto Spaces:
    Space          Size  Autos    Used
    COMMON           14     10      12
    BANK0            80     80      80
    BANK1            80     33      60
    BANK2            80      0      40
    BANK3            80      0       0
    BANK4            80      0       0
    BANK5            80      0       0
    BANK6            16      0       0

Pointer List with Targets:

    None.

Critical Paths under _main in COMMON

    _main->_buff_put
    _upd_PWM->___fleq
    _upd_PWM->___xxtofl
    ___flmul->__Umul8_16
    ___flge->___xxtofl
    _get_avg_temp->___xxtofl
    ___fladd->___xxtofl
    _buff_put->_read_TC

Critical Paths under _ISR in COMMON

    _ISR->_ref_disp
    _ref_disp->_SPI_out

Critical Paths under _main in BANK0

    _upd_disp->___awdiv
    ___awmod->___awdiv
    ___awdiv->___fltol
    _upd_PWM->___fltol
    ___fltol->___fladd
    ___flsub->___fladd
    ___flmul->__Umul8_16
    ___flge->___fladd
    _get_avg_temp->___fladd
    ___fldiv->___flmul
    ___fladd->___fldiv

Critical Paths under _ISR in BANK0

    None.

Critical Paths under _main in BANK1

    _main->_upd_disp
    _upd_disp->___awmod
    ___awmod->___awdiv
    ___awdiv->___fltol
    _upd_PWM->___flge

Critical Paths under _ISR in BANK1

    None.

Critical Paths under _main in BANK2

    None.

Critical Paths under _ISR in BANK2

    None.

Critical Paths under _main in BANK3

    None.

Critical Paths under _ISR in BANK3

    None.

Critical Paths under _main in BANK4

    None.

Critical Paths under _ISR in BANK4

    None.

Critical Paths under _main in BANK5

    None.

Critical Paths under _ISR in BANK5

    None.

Critical Paths under _main in BANK6

    None.

Critical Paths under _ISR in BANK6

    None.

Call Graph Tables:

 ---------------------------------------------------------------------------------
 (Depth) Function   	        Calls       Base Space   Used Autos Params    Refs
 ---------------------------------------------------------------------------------
 (0) _main                                                 0     0      0   33692
                             ___flge
                           _buff_put
                       _get_avg_temp
                               _init
                            _read_TC
                            _set_PWM
                            _upd_PWM
                           _upd_disp
 ---------------------------------------------------------------------------------
 (1) _upd_disp                                            10     6      4   11470
                                             23 BANK1     10     6      4
                            ___awdiv
                            ___awmod
                            ___fladd
                            ___fldiv
                            ___flmul
                            ___fltol
 ---------------------------------------------------------------------------------
 (2) ___awmod                                              7     3      4     600
                                             16 BANK1      7     3      4
                            ___awdiv (ARG)
                            ___fltol (ARG)
 ---------------------------------------------------------------------------------
 (2) ___awdiv                                              9     5      4     625
                                             79 BANK0      1     1      0
                                              8 BANK1      8     4      4
                            ___fltol (ARG)
 ---------------------------------------------------------------------------------
 (1) _upd_PWM                                              8     8      0   15379
                                             12 BANK1      8     8      0
                            ___fladd
                            ___fldiv
                             ___fleq
                             ___flge
                            ___flmul
                            ___flsub
                            ___fltol
                           ___xxtofl
 ---------------------------------------------------------------------------------
 (2) ___fltol                                             10     6      4     607
                                             77 BANK0      2     2      0
                                              0 BANK1      8     4      4
                            ___fladd (ARG)
                            ___flmul (ARG)
 ---------------------------------------------------------------------------------
 (2) ___flsub                                              8     0      8    3445
                                              0 BANK1      8     0      8
                            ___fladd
 ---------------------------------------------------------------------------------
 (2) ___flmul                                             26    18      8    4433
                                              5 BANK0     26    18      8
                          __Umul8_16
 ---------------------------------------------------------------------------------
 (3) __Umul8_16                                            9     7      2     980
                                              2 COMMON     4     2      2
                                              0 BANK0      5     5      0
 ---------------------------------------------------------------------------------
 (2) ___flge                                              12     4      8     806
                                              0 BANK1     12     4      8
                            ___fladd (ARG)
                            ___flmul (ARG)
                           ___xxtofl (ARG)
 ---------------------------------------------------------------------------------
 (2) ___fleq                                              12     4      8     394
                                              2 COMMON     8     0      8
                                              0 BANK0      4     4      0
 ---------------------------------------------------------------------------------
 (1) _set_PWM                                              4     2      2     196
                                              2 COMMON     4     2      2
 ---------------------------------------------------------------------------------
 (1) _read_TC                                              6     4      2      26
                                              2 COMMON     6     4      2
                           _SPI_read
 ---------------------------------------------------------------------------------
 (2) _SPI_read                                             0     0      0       0
 ---------------------------------------------------------------------------------
 (1) _init                                                 0     0      0       0
 ---------------------------------------------------------------------------------
 (1) _get_avg_temp                                        15    11      4    5604
                                             77 BANK0      2     2      0
                                              0 BANK1     13     9      4
                            ___fladd
                            ___fldiv
                           ___xxtofl
 ---------------------------------------------------------------------------------
 (2) ___xxtofl                                            14    10      4     474
                                              2 COMMON     8     4      4
                                              0 BANK0      6     6      0
 ---------------------------------------------------------------------------------
 (2) ___fldiv                                             26    18      8    1729
                                             31 BANK0     26    18      8
                            ___flmul (ARG)
 ---------------------------------------------------------------------------------
 (2) ___fladd                                             20    12      8    3200
                                             57 BANK0     20    12      8
                            ___fldiv (ARG)
                            ___flmul (ARG)
                           ___xxtofl (ARG)
 ---------------------------------------------------------------------------------
 (1) _buff_put                                             3     1      2     211
                                              8 COMMON     2     0      2
                                              0 BANK0      1     1      0
                            _read_TC (ARG)
 ---------------------------------------------------------------------------------
 Estimated maximum stack depth 3
 ---------------------------------------------------------------------------------
 (Depth) Function   	        Calls       Base Space   Used Autos Params    Refs
 ---------------------------------------------------------------------------------
 (4) _ISR                                                  0     0      0      22
                           _ref_disp
 ---------------------------------------------------------------------------------
 (5) _ref_disp                                             1     1      0      22
                                              1 COMMON     1     1      0
                            _SPI_out
 ---------------------------------------------------------------------------------
 (6) _SPI_out                                              1     1      0      22
                                              0 COMMON     1     1      0
 ---------------------------------------------------------------------------------
 Estimated maximum stack depth 6
 ---------------------------------------------------------------------------------

 Call Graph Graphs:

 _main (ROOT)
   ___flge
     ___fladd (ARG)
       ___fldiv (ARG)
         ___flmul (ARG)
           __Umul8_16
       ___flmul (ARG)
       ___xxtofl (ARG)
     ___flmul (ARG)
     ___xxtofl (ARG)
   _buff_put
     _read_TC (ARG)
       _SPI_read
   _get_avg_temp
     ___fladd
     ___fldiv
     ___xxtofl
   _init
   _read_TC
   _set_PWM
   _upd_PWM
     ___fladd
     ___fldiv
     ___fleq
     ___flge
     ___flmul
     ___flsub
       ___fladd
     ___fltol
       ___fladd (ARG)
       ___flmul (ARG)
     ___xxtofl
   _upd_disp
     ___awdiv
       ___fltol (ARG)
     ___awmod
       ___awdiv (ARG)
       ___fltol (ARG)
     ___fladd
     ___fldiv
     ___flmul
     ___fltol

 _ISR (ROOT)
   _ref_disp
     _SPI_out

 Address spaces:
Name               Size   Autos  Total    Cost      Usage
BIGRAM             1F0      0       0       0        0.0%
EEDATA             100      0       0       0        0.0%
NULL                 0      0       0       0        0.0%
CODE                 0      0       0       0        0.0%
BITCOMMON            E      0       0       1        0.0%
BITSFR0              0      0       0       1        0.0%
SFR0                 0      0       0       1        0.0%
COMMON               E      A       C       2       85.7%
BITSFR1              0      0       0       2        0.0%
SFR1                 0      0       0       2        0.0%
BITSFR2              0      0       0       3        0.0%
SFR2                 0      0       0       3        0.0%
STACK                0      0       0       3        0.0%
BITSFR3              0      0       0       4        0.0%
SFR3                 0      0       0       4        0.0%
ABS                  0      0      C0       4        0.0%
BITBANK0            50      0       0       5        0.0%
BITSFR4              0      0       0       5        0.0%
SFR4                 0      0       0       5        0.0%
BANK0               50     50      50       6      100.0%
BITSFR5              0      0       0       6        0.0%
SFR5                 0      0       0       6        0.0%
BITBANK1            50      0       0       7        0.0%
BITSFR6              0      0       0       7        0.0%
SFR6                 0      0       0       7        0.0%
BANK1               50     21      3C       8       75.0%
BITSFR7              0      0       0       8        0.0%
SFR7                 0      0       0       8        0.0%
BITBANK2            50      0       0       9        0.0%
BITSFR8              0      0       0       9        0.0%
SFR8                 0      0       0       9        0.0%
BANK2               50      0      28      10       50.0%
BITSFR9              0      0       0      10        0.0%
SFR9                 0      0       0      10        0.0%
BITBANK3            50      0       0      11        0.0%
BITSFR10             0      0       0      11        0.0%
SFR10                0      0       0      11        0.0%
BANK3               50      0       0      12        0.0%
BITSFR11             0      0       0      12        0.0%
SFR11                0      0       0      12        0.0%
BITBANK4            50      0       0      13        0.0%
BITSFR12             0      0       0      13        0.0%
SFR12                0      0       0      13        0.0%
BANK4               50      0       0      14        0.0%
BITSFR13             0      0       0      14        0.0%
SFR13                0      0       0      14        0.0%
BITBANK5            50      0       0      15        0.0%
BITSFR14             0      0       0      15        0.0%
SFR14                0      0       0      15        0.0%
BANK5               50      0       0      16        0.0%
BITSFR15             0      0       0      16        0.0%
SFR15                0      0       0      16        0.0%
BITBANK6            10      0       0      17        0.0%
BITSFR16             0      0       0      17        0.0%
SFR16                0      0       0      17        0.0%
BANK6               10      0       0      18        0.0%
BITSFR17             0      0       0      18        0.0%
SFR17                0      0       0      18        0.0%
BITSFR18             0      0       0      19        0.0%
SFR18                0      0       0      19        0.0%
DATA                 0      0      C0      19        0.0%
BITSFR19             0      0       0      20        0.0%
SFR19                0      0       0      20        0.0%
BITSFR20             0      0       0      21        0.0%
SFR20                0      0       0      21        0.0%
BITSFR21             0      0       0      22        0.0%
SFR21                0      0       0      22        0.0%
BITSFR22             0      0       0      23        0.0%
SFR22                0      0       0      23        0.0%
BITSFR23             0      0       0      24        0.0%
SFR23                0      0       0      24        0.0%
BITSFR24             0      0       0      25        0.0%
SFR24                0      0       0      25        0.0%
BITSFR25             0      0       0      26        0.0%
SFR25                0      0       0      26        0.0%
BITSFR26             0      0       0      27        0.0%
SFR26                0      0       0      27        0.0%
BITSFR27             0      0       0      28        0.0%
SFR27                0      0       0      28        0.0%
BITSFR28             0      0       0      29        0.0%
SFR28                0      0       0      29        0.0%
BITSFR29             0      0       0      30        0.0%
SFR29                0      0       0      30        0.0%
BITSFR30             0      0       0      31        0.0%
SFR30                0      0       0      31        0.0%
BITSFR31             0      0       0      32        0.0%
SFR31                0      0       0      32        0.0%


Microchip Technology PIC Macro Assembler V2.46 build 20240104201356 
Symbol Table                                                                                   Sun Dec 22 09:08:32 2024

           ___fldiv@aexp 0058             ___fldiv@bexp 0057             ___fldiv@sign 0050  
           ___awdiv@sign 00AD      __Umul8_16@word_mpld 0022                      l123 096C  
                    l142 09A2                      l126 0971                      l150 0DAA  
                    l153 09C2                      l161 0989                      l171 02B4  
                    l172 02BC                      l158 07AE                      l182 0B3B  
                    l167 00F1                      l191 0C7D                      l184 0B3F  
                    l185 0B6B                      l521 07CC                      l505 0AF5  
                    l522 07E8                      l530 0C05                      l194 0CCD  
                    l533 0C59                      l518 0A91                      l711 0FFF  
                    l527 07FD                      l553 0BD1                      l730 0FD1  
                    l538 0C72                      l546 0BE7                      l731 0FEB  
                    l556 0BE7                      l653 054E                      l733 0FF8  
                    l725 0F85                      l709 0EA7                      l806 0E21  
                    l807 0E2D                      l657 05CB                      l761 04EB  
                    l674 065B                      l666 06FF                      l770 0A07  
                    l659 05A9                      l755 0477                      l684 069F  
                    l749 04F7                      l678 067D                      l695 06F8  
                    l687 06D6                      l696 06FF                      l768 09F7  
                    l793 0DCE                      l795 0E55                      l699 0A3D  
                    l799 0E07                      _PR2 001E                      _PR4 0416  
                    _ISR 0004              buff_put@dat 0078             ___awmod@sign 00B6  
                    wreg 0009             ___flmul@aexp 0033             ___flmul@bexp 0038  
           ___flmul@sign 0032             ___flmul@temp 003D             ___flmul@prod 0039  
           _BAUD1CONbits 019F                     ?_ISR 0070             ___fltol@exp1 006E  
                   l2030 0A3E                     l2200 0EEE                     l3000 0709  
                   l2040 0A4F                     l2032 0A40                     l2210 0F13  
                   l2202 0EF6                     l3010 0750                     l2050 0A66  
                   l2042 0A54                     l2034 0A44                     l2220 0F32  
                   l2212 0F17                     l2204 0EFE                     l3012 0756  
                   l3020 0070                     l2052 0A6A                     l2044 0A5A  
                   l2060 0A83                     l2036 0A49                     l2230 0F4E  
                   l2222 0F3A                     l2214 0F18                     l2206 0F00  
                   l2150 0E61                     l2142 0E56                     l3006 070A  
                   l2070 07C4                     l3030 009D                     l3022 0075  
                   l2062 0A88                     l2054 0A74                     l2046 0A5D  
                   l2038 0A4B                     l2232 0F55                     l2240 0F65  
                   l2208 0F05                     l2216 0F1F                     l2224 0F3E  
                   l2152 0E66                     l2160 0E76                     l2144 0E5A  
                   l3008 074A                     l2072 07E0                     l3040 0194  
                   l3032 00B4                     l3024 008C                     l3016 004E  
                   l2064 0A8D                     l2056 0A78                     l2048 0A62  
                   l2242 0F69                     l2234 0F59                     l2226 0F44  
                   l2218 0F31                     l2170 0E8A                     l2162 0E7E  
                   l2154 0E6B                     l2146 0E5C                     l2074 07FA  
                   l3050 02A6                     l3042 019D                     l3034 00B7  
                   l3026 008F                     l3018 006B                     l2058 0A7D  
                   l2260 0FB3                     l2252 0F8A                     l2244 0F6A  
                   l2236 0F5A                     l2228 0F4C                     l2172 0E8F  
                   l2180 0E9F                     l2164 0E83                     l2156 0E73  
                   l2148 0E60                     l2500 09BC                     l2076 07FC  
                   l2068 07AF                     l3052 02B0                     l3044 01E8  
                   l3028 0097                     l3036 00BF                     l3060 0C8D  
                   l2270 0FEA                     l2254 0F8F                     l2262 0FB7  
                   l2246 0F6E                     l2238 0F61                     l2182 0EAF  
                   l2190 0EC8                     l2174 0E94                     l2166 0E85  
                   l2158 0E74                     l2430 0DD6                     l2422 0DAD  
                   l2502 09BE                     l3046 023F                     l3038 00C5  
                   l3070 0CC6                     l3062 0C93                     l3054 0C73  
                   l1800 0530                     l2272 0FEE                     l2264 0FC4  
                   l2256 0F97                     l2248 0F82                     l2192 0ECD  
                   l2184 0EBB                     l2176 0E9C                     l2168 0E89  
                   l2440 0DF4                     l2424 0DB2                     l2600 0B0E  
                   l3048 0243                     l3080 0CE7                     l3072 0CC8  
                   l3064 0C9F                     l3056 0C81                     l1810 0544  
                   l1802 0531                     l2274 0FF2                     l2266 0FDF  
                   l2258 0F9B                     l2186 0EBF                     l2178 0E9D  
                   l2450 0E1B                     l2442 0DF8                     l2434 0DDF  
                   l2426 0DB6                     l2610 0B18                     l2602 0B0F  
                   l3082 0CF5                     l3074 0CD4                     l3066 0CAA  
                   l3058 0C8B                     l1900 064A                     l1820 055E  
                   l1804 0536                     l1812 0546                     l2276 0FF4  
                   l2268 0FE2                     l2196 0ED6                     l2460 0E4C  
                   l2452 0E25                     l2444 0E00                     l2436 0DE2  
                   l2428 0DC6                     l2620 0B28                     l2612 0B1C  
                   l2604 0B11                     l2524 097B                     l3084 0D00  
                   l3076 0CD8                     l3068 0CC2                     l1910 0671  
                   l1902 0653                     l1830 0568                     l1822 0560  
                   l1814 0554                     l1806 053B                     l2198 0EE6  
                   l2462 0E4D                     l2454 0E2F                     l2446 0E0E  
                   l2438 0DED                     l2630 0B33                     l2622 0B29  
                   l2614 0B1D                     l2606 0B13                     l2526 097F  
                   l3086 0D03                     l3078 0CDD                     l1920 0686  
                   l1912 0678                     l1904 0663                     l1840 0572  
                   l1832 056A                     l1824 0562                     l1816 0558  
                   l1808 0543                     l2456 0E43                     l2448 0E17  
                   l2640 0B47                     l2632 0B34                     l2624 0B2B  
                   l2616 0B22                     l2608 0B17                     l2800 0C71  
                   l1930 0696                     l1922 068B                     l1914 067C  
                   l1906 0668                     l1850 057B                     l1842 0574  
                   l1834 056C                     l1826 0564                     l1818 055C  
                   l1770 04F8                     l2458 0E48                     l2650 0B4D  
                   l2642 0B49                     l2634 0B3A                     l2626 0B2D  
                   l2618 0B26                     l2570 0AFD                     l2490 09A3  
                   l2730 09EF                     l2810 0B81                     l1940 06B1  
                   l1932 069C                     l1916 0681                     l1924 068D  
                   l1860 05B7                     l1852 0592                     l1844 0576  
                   l1836 056E                     l1828 0566                     l1780 0508  
                   l1772 04FC                     l2660 0B5A                     l2652 0B4E  
                   l2644 0B4A                     l2636 0B42                     l2628 0B30  
                   l2580 0B02                     l2572 0AFE                     l2492 09A3  
                   l2732 09F3                     l2900 0374                     l2820 0BA5  
                   l2812 0B94                     l2804 0B6C                     l2740 0A92  
                   l1950 06E8                     l1942 06B5                     l1918 0684  
                   l1926 0691                     l1870 05D4                     l1862 05B8  
                   l1854 05AD                     l1846 0578                     l1838 0570  
                   l1790 0520                     l1782 050D                     l1774 04FE  
                   l2670 0B64                     l2662 0B5B                     l2654 0B54  
                   l2646 0B4B                     l2638 0B45                     l2590 0B07  
                   l2582 0B03                     l2574 0AFF                     l2566 0AF6  
                   l2494 09A5                     l2734 09FE                     l2726 09E6  
                   l2910 03A7                     l2902 0381                     l2814 0B96  
                   l2806 0B77                     l2750 0AA3                     l2742 0A94  
                   l1960 06FA                     l1952 06ED                     l1944 06D2  
                   l1936 06A4                     l1928 0692                     l1880 05ED  
                   l1864 05C0                     l1856 05B1                     l1848 057A  
                   l1792 0523                     l1784 0515                     l1776 0502  
                   l2672 0B66                     l2664 0B5C                     l2656 0B56  
                   l2648 0B4C                     l2592 0B09                     l2584 0B04  
                   l2576 0B00                     l2568 0AFB                     l2496 09AE  
                   l2736 0A03                     l2728 09E8                     l2920 03E4  
                   l2912 03B2                     l2904 038E                     l2840 0A08  
                   l2816 0B9E                     l2760 0AB9                     l2752 0AA8  
                   l2744 0A98                     l1962 06FE                     l1954 06EE  
                   l1946 06DB                     l1938 06A9                     l1890 0600  
                   l1882 05F1                     l1874 05DD                     l1858 05B3  
                   l1866 05C4                     l1794 0529                     l1786 0516  
                   l1778 0503                     l2674 0B68                     l2666 0B5F  
                   l2658 0B58                     l2594 0B0A                     l2586 0B05  
                   l2578 0B01                     l2498 09B3                     l2930 0434  
                   l2922 03EF                     l2914 03B9                     l2906 0395  
                   l2850 02C3                     l2842 0A0B                     l2834 0BC6  
                   l2826 0BAD                     l2818 0BA1                     l2770 0ADB  
                   l2762 0ABE                     l2754 0AAE                     l2746 0A9D  
                   l1956 06F2                     l1948 06E0                     l1884 05F3  
                   l1876 05E5                     l1868 05CF                     l1892 0605  
                   l1796 052A                     l1788 0518                     l2676 0B69  
                   l2668 0B61                     l2596 0B0B                     l2588 0B06  
                   l1980 0970                     l2940 0453                     l2932 0440  
                   l2924 0401                     l2916 03CB                     l2908 03A0  
                   l2860 02DA                     l2852 02C7                     l2836 0BD6  
                   l2828 0BBF                     l2780 0AF1                     l2772 0ADC  
                   l2764 0AC4                     l2756 0AB0                     l2748 0A9F  
                   l1958 06F4                     l1894 061B                     l1886 05F7  
                   l1878 05E9                     l1798 052C                     l2678 0B6A  
                   l2598 0B0D                     l2790 0C21                     l2950 0474  
                   l2934 0447                     l2942 0457                     l2926 0416  
                   l2918 03D2                     l2870 02EF                     l2862 02DC  
                   l2854 02C8                     l2846 02BD                     l2838 0BDB  
                   l2774 0AE1                     l2766 0AC8                     l2758 0AB6  
                   l1896 063F                     l1888 05F8                     l2792 0C25  
                   l2784 0BE8                     l2960 048D                     l2944 045B  
                   l2936 044B                     l2928 042D                     l2880 0304  
                   l2872 02F0                     l2864 02E4                     l2856 02CD  
                   l2848 02C1                     l2768 0AD7                     l2776 0AE7  
                   l1898 0645                     l1978 096A                     l2794 0C3D  
                   l2786 0BFD                     l2970 04CE                     l2962 04A5  
                   l2954 047C                     l2946 045C                     l2938 044C  
                   l2890 031F                     l2882 030C                     l2874 02F5  
                   l2866 02E9                     l2858 02D2                     l2778 0AEC  
                   l2796 0C41                     l2788 0C19                     l2980 04E9  
                   l2972 04D7                     l2956 0481                     l2964 04A9  
                   l2948 0460                     l2892 032A                     l2884 0311  
                   l2876 02FA                     l2868 02EB                     l2990 0998  
                   l2798 0C6F                     l2982 04EF                     l2974 04D9  
                   l2966 04B6                     l2958 0489                     l2894 0337  
                   l2886 0316                     l2878 0302                     l2992 099E  
                   l2976 04E4                     l2968 04C0                     l2896 034F  
                   l2994 099F                     l2986 098A                     l2978 04E8  
                   l2898 035C                     l2988 0993                     l2996 0D0E  
                   l2998 0700                     u2000 061B                     u2001 061A  
                   u2010 064A                     u2011 0649                     u2003 0617  
                   u2100 069C                     u2020 0663                     u2101 069B  
                   u2021 0662                     u2110 06A3                     u2030 0668  
                   u2111 06A2                     u2031 0667                     u2200 06FE  
                   u2120 06A9                     u2201 06FD                     u2121 06A8  
                   u2130 06B5                     u2050 067C                     u2131 06B4  
                   u2051 067B                     u2140 06C3                     u2060 0681  
                   u2061 0680                     u2045 0672                     _LATA 010C  
                   u2150 06D2                     u2070 068B                     _LATB 010D  
                   u2151 06D1                     u2071 068A                     _LATC 010E  
                   u2160 06DB                     u2080 0691                     u3200 0DD6  
                   u2240 0970                     u4000 0474                     u2400 0A6A  
                   u2161 06DA                     u2145 06BF                     u2081 0690  
                   u3201 0DD5                     u2241 096F                     u4001 0473  
                   u2401 0A69                     u2170 06E0                     u2090 0696  
                   u4010 047B                     u2410 0A74                     u2171 06DF  
                   u2091 0695                     u4011 047A                     u2411 0A73  
                   u2180 06ED                     u3300 0E48                     u3220 0DF3  
                   u4020 0481                     u4100 0070                     u2181 06EC  
                   u3301 0E47                     u3221 0DF2                     u4021 0480  
                   u4101 006F                     u2190 06F2                     u3310 0E4C  
                   u4030 048D                     u4110 0075                     u2430 0A83  
                   u2191 06F1                     u3311 0E4B                     u3215 0DE7  
                   u4031 048C                     u4111 0074                     u2431 0A82  
                   u2415 0A70                     u1800 050D                     u3240 0E0D  
                   u4040 049B                     u4120 008C                     u2440 0A88  
                   u2360 0A44                     u4200 0C93                     u1801 050C  
                   u3241 0E0C                     u4121 008B                     u2441 0A87  
                   u2425 0A79                     u2361 0A43                     u4201 0C92  
                   u1810 0529                     u2450 07C4                     u4050 04B6  
                   u4130 009D                     u2370 0A4F                     u4210 0CC2  
                   u1811 0528                     u3235 0E01                     u2451 07C3  
                   u4051 04B5                     u4131 009C                     u2371 0A4E  
                   u4211 0CC1                     u1900 05AD                     u1820 0530  
                   u2700 0ECD                     u3260 0E1B                     u3180 0DB2  
                   u2460 07E0                     u4060 04CE                     u4140 00B4  
                   u2380 0A5A                     u4220 0CDD                     u1901 05AC  
                   u1821 052F                     u2701 0ECC                     u3261 0E1A  
                   u3181 0DB1                     u2461 07DF                     u4061 04CD  
                   u4045 0497                     u4141 00B3                     u2381 0A59  
                   u4221 0CDC                     u1910 05B7                     u1830 0536  
                   u2710 0F05                     u2630 0E60                     u3270 0E21  
                   u3190 0DB6                     u2470 07FA                     u4070 04E8  
                   u4150 00C5                     u1911 05B6                     u1831 0535  
                   u2711 0F04                     u2631 0E5F                     u3271 0E20  
                   u3255 0E11                     u3191 0DB5                     u2471 07F9  
                   u4071 04E7                     u4055 04B2                     u4151 00C4  
                   u4080 099E                     u1840 053B                     u2800 0F59  
                   u2640 0E66                     u3280 0E25                     u4160 0194  
                   u4081 099D                     u1841 053A                     u2801 0F58  
                   u2641 0E65                     u3281 0E24                     u3345 09AF  
                   u4065 04CA                     u4161 0193                     u1930 05CB  
                   u1850 0554                     u2650 0E6B                     u3290 0E39  
                   u4090 0756                     u3450 0B3F                     u4170 023F  
                   u3610 0AC8                     u1931 05CA                     u1851 0553  
                   u2651 0E6A                     u4091 0755                     u3451 0B3E  
                   u2475 07F6                     u4171 023E                     u3611 0AC7  
                   u2395 0A5E                     u1940 05CF                     u1860 0558  
                   u1780 0502                     u2900 0FDF                     u2820 0F69  
                   u2740 0F17                     u2660 0E89                     u3700 0C41  
                   u3540 09F3                     u4180 02B0                     u1941 05CE  
                   u1925 05BA                     u1861 0557                     u1781 0501  
                   u2901 0FDE                     u2821 0F68                     u2741 0F16  
                   u2725 0F06                     u2661 0E88                     u3701 0C40  
                   u3541 09F2                     u4181 02AF                     u3605 0ABA  
                   u1950 05D4                     u1870 0592                     u1790 0508  
                   u2910 0FF2                     u2830 0F6E                     u2670 0E8F  
                   u3710 0C6F                     u3630 0AD7                     u4190 0C81  
                   u1951 05D3                     u1871 0591                     u1791 0507  
                   u2911 0FF1                     u2831 0F6D                     u2815 0F5B  
                   u2735 0F0D                     u2671 0E8E                     u3295 0E35  
                   u3711 0C6E                     u3631 0AD6                     u4191 0C80  
                   u1960 05E9                     u1880 059C                     u2840 0F82  
                   u2760 0F31                     u2680 0E94                     u3560 0A03  
                   u3800 0BD6                     u3720 0B77                     u1961 05E8  
                   u1881 059A                     u2905 0FDB                     u2841 0F81  
                   u2761 0F30                     u2681 0E93                     u3561 0A02  
                   u3801 0BD5                     u3721 0B76                     u4185 02AC  
                   u3625 0AC9                     u1970 05ED                     u1890 059D  
                   u2850 0F89                     u2770 0F44                     u2690 0EAF  
                   u3810 0BDB                     u3730 0B8F                     u3650 0AE7  
                   u3570 0A98                     u1971 05EC                     u1875 058E  
                   u2851 0F88                     u2771 0F43                     u2755 0F19  
                   u2691 0EAE                     u3715 0C6B                     u3555 09F8  
                   u3811 0BDA                     u3651 0AE6                     u3635 0AD3  
                   u3571 0A97                     u1980 05F7                     u2860 0F8F  
                   u2780 0F4C                     u3820 02C7                     u3740 0BA5  
                   u3660 0AEC                     u3580 0AA3                     u1981 05F6  
                   u2861 0F8E                     u2781 0F4B                     u2765 0F2D  
                   u3821 02C6                     u3741 0BA4                     u3661 0AEB  
                   u3645 0ADD                     u3581 0AA2                     u2870 0F9B  
                   u3670 0BFD                     u3830 02CD                     u3750 0BAC  
                   u3590 0AB6                     u2871 0F9A                     u3671 0BFC  
                   u3831 02CC                     u3751 0BAB                     u3735 0B8B  
                   u3591 0AB5                     u2880 0FA9                     u3680 0C19  
                   u3920 040C                     u3840 02D2                     u3681 0C18  
                   u3905 038F                     u3841 02D1                     u2890 0FC4  
                   u3690 0C25                     u3930 0423                     u3850 02EF  
                   u3770 0BBE                     u1995 05FA                     u2891 0FC3  
                   u2795 0F4F                     u3691 0C24                     u3915 03BA  
                   u3851 02EE                     u3771 0BBD                     u3860 02F5  
                   u3780 0BC5                     u2885 0FA5                     u3925 0408  
                   u3861 02F4                     u3781 0BC4                     u3765 0BAE  
                   u3870 02FA                     u2895 0FC0                     u3935 041F  
                   u3871 02F9                     u3960 044B                     u3880 0311  
                   u3961 044A                     u3945 042E                     u3881 0310  
                   u3890 0316                     u3955 0441                     u3891 0315  
                   u3795 0BC7                     u3980 045B                     u3981 045A  
                   u3990 0460                     u3991 045F                     u3975 044D  
         ??_get_avg_temp 006D                     _main 0C73                     _init 0AF6  
                   _mode 00D2                     fsr0h 0005                     fsr1h 0007  
                   indf0 0000                     fsr0l 0004                     fsr1l 0006  
                   btemp 007E          __end_of_SPI_out 097B                     start 0025  
        ___fldiv@new_exp 0051                    ??_ISR 0072               _SP_crossed 00D4  
          get_avg_temp@i 00AC            ___fltol@sign1 006D          __end_of___fladd 0700  
                  ?_main 0070                    ?_init 0070          __end_of___fldiv 1000  
        __end_of___awdiv 0AF6          __end_of___awmod 0A92          __end_of___flmul 04F8  
        __end_of___flsub 0A3E          __end_of___fltol 0BE8          ___awdiv@divisor 00A8  
                  i1l132 097A                    i1l129 0976                    i1l147 09E3  
                  i1l177 0014                    i1l179 0023          ___awdiv@counter 00AC  
                  _TRISA 008C                    _TRISB 008D                    _TRISC 008E  
                  _flags 00D1          __end_of_read_TC 09C3          __end_of_set_PWM 098A  
        __end_of_upd_PWM 02BD         __end_of_SPI_read 0972                    status 0003  
                  wtemp0 007E          __initialization 0027             __end_of_main 0D0E  
           __end_of_init 0B6C            upd_disp@TEMPF 00BD                   ??_main 007A  
                 ??_init 0072        read_TC@DAT_BUFFER 0076         ___awdiv@dividend 00AA  
                 _ANSELA 018C                   _ANSELB 018D                   _ANSELC 018E  
              ??_SPI_out 0070                   _RC0PPS 0EA0                   _RA4PPS 0E94  
                 _RC4PPS 0EA4                   _RC7PPS 0EA7                   i1l2480 09CD  
                 i1l2482 09D1                   i1l2484 09D3                   i1l2476 09C3  
                 i1l2486 09D4                   i1l2478 09C8                   i1l2680 0006  
                 i1l2690 0021                   i1l2682 000B                   i1l2684 0010  
                 i1l2686 0019                   i1l1984 0973                   i1l2688 001E  
                 u225_20 097A                   u225_21 0979                   u333_20 09C8  
                 u333_21 09C7                   u346_20 000B                   u346_21 000A  
                 u347_20 0010                   u347_21 000F                   u348_20 0019  
                 u348_21 0018                   u349_20 001E                   u349_21 001D  
                 _OSCFRQ 091F                   _TX1REG 019A         __end_of___xxtofl 0E56  
       __end_of_buff_put 09A3                   ___flge 0BE8                   ___fleq 07AF  
              ??___fladd 0061                ??___fldiv 0047                ??___awdiv 006F  
              ??___awmod 00B4                ??___flmul 002D                ??___flsub 007A  
              ??___fltol 00A4         ___awdiv@quotient 00AE          ___awmod@divisor 00B0  
   __end_of_get_avg_temp 07AF         __end_of_ref_disp 09E4          ___awmod@counter 00B5  
              ??_read_TC 0074                ??_set_PWM 0074         __end_of_upd_disp 0DAB  
              ??_upd_PWM 007A               ___flge@ff1 00A0               ___flge@ff2 00A4  
           ___xxtofl@arg 0022             ___xxtofl@exp 0021             ___xxtofl@val 0072  
             ___fleq@ff1 0072               ___fleq@ff2 0076  __end_of__initialization 004A  
             ___fltol@f1 00A0           __pcstackCOMMON 0070             __pidataBANK1 0964  
              ?_SPI_read 0070          get_avg_temp@sum 00A8               __pbssBANK1 00C1  
             __pbssBANK2 0120        __end_of__Umul8_16 0A08               __pmaintext 0C73  
                ?___flge 00A0                  ?___fleq 0072               __pintentry 0004  
             ??_SPI_read 0072                ?___xxtofl 0072               _buff_index 007B  
                _SP1BRGL 019B                  _OSCCON1 0919                  _PWM5DCH 0618  
                _PWM5DCL 0617                  _SSP1BUF 0211                ?_buff_put 0078  
                _SPI_out 0972                  _PWM_max 00CD                ?_ref_disp 0070  
                ___fladd 04F8                  ___fldiv 0E56                ?_upd_disp 00B7  
                ___awdiv 0A92                  ___awmod 0A3E                  ___flmul 02BD  
                ___flsub 0A08                  ___fltol 0B6C                  __ptext1 0D0E  
                __ptext2 0A3E                  __ptext3 0A92                  __ptext4 004E  
                __ptext5 0B6C                  __ptext6 0A08                  __ptext7 02BD  
                __ptext8 09E4                  __ptext9 0BE8                  _cur_PWM 00CF  
                _cum_err 00C5                  _read_TC 09A3                _T2CONbits 001F  
             ??___xxtofl 0076         ___awmod@dividend 00B2                _T4CONbits 0417  
                _set_PWM 097B        _get_avg_temp$1279 00A4                  _upd_PWM 004E  
                clrloop0 095F               ??_buff_put 0020     end_of_initialization 004A  
           _get_avg_temp 0700               ??_ref_disp 0071               ??_upd_disp 00BB  
            ___fladd@grs 006C            ___xxtofl@sign 0020                _TRISAbits 008C  
              _TRISBbits 008D                _TRISCbits 008E              ___fldiv@grs 0053  
            ___fldiv@rem 004C              ___flmul@grs 0034              upd_disp@dat 00B7  
         __end_of___flge 0C73           __end_of___fleq 07FE      start_initialization 0027  
            __end_of_ISR 0025                 ??___flge 00A8                 ??___fleq 0020  
              __Umul8_16 09E4              __pdataBANK1 00D6                ___fladd@a 005D  
              ___fladd@b 0059                ___fldiv@a 003F                ___fldiv@b 0043  
              ___flmul@a 0029                ___flmul@b 0025              __pbssCOMMON 007A  
              ___flsub@a 00A0                ___flsub@b 00A4                ___latbits 0001  
          __pcstackBANK0 0020            __pcstackBANK1 00A0                 ?_SPI_out 0070  
             set_PWM@PWM 0072                 ?___fladd 0059                 ?___fldiv 003F  
               ?___awdiv 00A8                 ?___awmod 00B0                 ?___flmul 0025  
               ?___flsub 00A0                 ?___fltol 00A0               ?__Umul8_16 0072  
              _buff_full 00D5                 ?_read_TC 0072                 ?_set_PWM 0072  
               ?_upd_PWM 0070                 _LATBbits 010D                 _LATCbits 010E  
              clear_ram0 095E                 _PIE0bits 0090                 _PIE2bits 0092  
             upd_PWM@err 00B0                 _PIR0bits 0010                 _PIR1bits 0011  
               _PIR2bits 0012                 _SPI_read 096A              _cum_err_max 00D6  
            ??__Umul8_16 0074               SPI_out@dat 0070                 ___xxtofl 0DAB  
             _T0CON0bits 0017               _T0CON1bits 0018                 __ptext10 07AF  
               __ptext11 097B                 __ptext12 09A3                 __ptext21 09C3  
               __ptext13 096A                 __ptext22 0972                 __ptext14 0AF6  
               __ptext15 0700                 __ptext16 0DAB                 __ptext17 0E56  
               __ptext18 04F8                 __ptext19 098A             _SSP1CON1bits 0215  
               _buff_put 098A                 _cur_temp 00C9                 _ref_disp 09C3  
           _upd_PWM$1280 00AC               _RC1STAbits 019D                 _temp_div 00D3  
               _temp_val 007A                 _prev_err 00C1                 int$flags 007E  
               _upd_disp 0D0E             _SSP1STATbits 0214               _INTCONbits 000B  
            _PWM5CONbits 0619                 intlevel1 0000              _temp_buffer 0120  
             _TEMPF_ones 00DB               _TEMPF_tens 00DA   __Umul8_16@multiplicand 0072  
             _SSP1DATPPS 0E21               _TX1STAbits 019E            ___fladd@signs 0069  
          ?_get_avg_temp 00A0             ___fladd@aexp 006A             ___fladd@bexp 006B  
   __Umul8_16@multiplier 0024        __Umul8_16@product 0020  
